(dp0
S'BORBA 06'
p1
V159647473
p2
sS'BORBA 07'
p3
V159647493
p4
sS'BORBA 04'
p5
V159647436
p6
sS'BORBA 05'
p7
V159647459
p8
sS'BORBA 02'
p9
V159647406
p10
sS'BORBA 03'
p11
V159647423
p12
sS'BORBA 01'
p13
V159647395
p14
sS'BORBA 08'
p15
V159647515
p16
sS'BORBA 09'
p17
V159647541
p18
sS'BORBA 11'
p19
V159647579
p20
sS'BORBA 10'
p21
V159647566
p22
sS'BORBA 13'
p23
V159647618
p24
sS'BORBA 12'
p25
V159647598
p26
sS'BORBA 16'
p27
V159647694
p28
s.