(dp0
S'1280x720'
p1
(dp2
S'BORBA 06'
p3
Vhttps://player.vimeo.com/external/159647473.hd.mp4?s=bde0d4033771bb4fd589ccbc9dec10196563f4a9&profile_id=113
p4
sS'BORBA 07'
p5
Vhttps://player.vimeo.com/external/159647493.hd.mp4?s=c51706615ae0bb2ba3137d866728ccf044327a00&profile_id=113
p6
sS'BORBA 04'
p7
Vhttps://player.vimeo.com/external/159647436.hd.mp4?s=36e66919cd143c578844045ff53db473ac8f93ce&profile_id=113
p8
sS'BORBA 05'
p9
Vhttps://player.vimeo.com/external/159647459.hd.mp4?s=78cf7079c37e1beb74e34633ce1bac6f5040208f&profile_id=113
p10
sS'BORBA 02'
p11
Vhttps://player.vimeo.com/external/159647406.hd.mp4?s=14eb0eb09e09adc8bd1dc1f52234a4893c8556d0&profile_id=113
p12
sS'BORBA 03'
p13
Vhttps://player.vimeo.com/external/159647423.hd.mp4?s=f8ee6f2d923f031104d19c087160867564b5658b&profile_id=113
p14
sS'BORBA 01'
p15
Vhttps://player.vimeo.com/external/159647395.hd.mp4?s=e68842b9e4df29303d007ef067e19d9c12675125&profile_id=113
p16
sS'BORBA 08'
p17
Vhttps://player.vimeo.com/external/159647515.hd.mp4?s=129eb9aaf2aeecffc076065255586fc96deeb7bf&profile_id=113
p18
sS'BORBA 09'
p19
Vhttps://player.vimeo.com/external/159647541.hd.mp4?s=c58838966e656a3d9d43709221c858a59aef4c3a&profile_id=113
p20
sS'BORBA 11'
p21
Vhttps://player.vimeo.com/external/159647579.hd.mp4?s=b28c5313887fed3318b6d327e8d1de950b224002&profile_id=113
p22
sS'BORBA 10'
p23
Vhttps://player.vimeo.com/external/159647566.hd.mp4?s=a370ac1dc2176d0773b7000cc7a083b718c11387&profile_id=113
p24
sS'BORBA 13'
p25
Vhttps://player.vimeo.com/external/159647618.hd.mp4?s=3fa3968752bcaadcd1cabfbaa5d1edc382c14aaf&profile_id=113
p26
sS'BORBA 12'
p27
Vhttps://player.vimeo.com/external/159647598.hd.mp4?s=6497c456e43e93c788bbceabe7080aa74962b76e&profile_id=113
p28
sS'BORBA 16'
p29
Vhttps://player.vimeo.com/external/159647694.hd.mp4?s=8b5344caa9807e41f4d12c5ce6b66439a5f046c0&profile_id=113
p30
ssS'960x540'
p31
(dp32
g3
Vhttps://player.vimeo.com/external/159647473.sd.mp4?s=a5a9910a9e0a96abcfa2e71d47edef6ca800dc59&profile_id=165
p33
sg5
Vhttps://player.vimeo.com/external/159647493.sd.mp4?s=e1f7a1db4b722679556acfa449feeb89baeecfd7&profile_id=165
p34
sg7
Vhttps://player.vimeo.com/external/159647436.sd.mp4?s=6fad7d6ef805e7913ae78457b54447c91f8d6851&profile_id=165
p35
sg9
Vhttps://player.vimeo.com/external/159647459.sd.mp4?s=a05f0b3ddc111e3cc12af7c7d473e908283a7bf4&profile_id=165
p36
sg11
Vhttps://player.vimeo.com/external/159647406.sd.mp4?s=44aa84533c7308b6114d29e880635bd42bcc8735&profile_id=165
p37
sg13
Vhttps://player.vimeo.com/external/159647423.sd.mp4?s=4864789be18fb01f2ec6a42b767a3eef8e26b992&profile_id=165
p38
sg15
Vhttps://player.vimeo.com/external/159647395.sd.mp4?s=70e5126cd0a257b09755569762b0c1917390d64a&profile_id=165
p39
sg17
Vhttps://player.vimeo.com/external/159647515.sd.mp4?s=281a23ca90344b806f506e97aabc419125d311b4&profile_id=165
p40
sg19
Vhttps://player.vimeo.com/external/159647541.sd.mp4?s=bdcf63cbce0986ff69758d59bce14af3bc30bbfa&profile_id=165
p41
sg21
Vhttps://player.vimeo.com/external/159647579.sd.mp4?s=1b46f0be89bc0f21aeb457145d1061b008a45ad8&profile_id=165
p42
sg23
Vhttps://player.vimeo.com/external/159647566.sd.mp4?s=b2ad5f082cc312c4cf550ef283a02501774e3107&profile_id=165
p43
sg25
Vhttps://player.vimeo.com/external/159647618.sd.mp4?s=35dd4cba6ee61feef6ebcd781437b9b04364e335&profile_id=165
p44
sg27
Vhttps://player.vimeo.com/external/159647598.sd.mp4?s=18b09bdbdfeafe8404fb0cf64004081cb3c020c9&profile_id=165
p45
sg29
Vhttps://player.vimeo.com/external/159647694.sd.mp4?s=f2a71db5f38ee5a1643b02308e6100e7afade529&profile_id=165
p46
ssS'640x360'
p47
(dp48
g3
Vhttps://player.vimeo.com/external/159647473.sd.mp4?s=a5a9910a9e0a96abcfa2e71d47edef6ca800dc59&profile_id=164
p49
sg5
Vhttps://player.vimeo.com/external/159647493.sd.mp4?s=e1f7a1db4b722679556acfa449feeb89baeecfd7&profile_id=164
p50
sg7
Vhttps://player.vimeo.com/external/159647436.sd.mp4?s=6fad7d6ef805e7913ae78457b54447c91f8d6851&profile_id=164
p51
sg9
Vhttps://player.vimeo.com/external/159647459.sd.mp4?s=a05f0b3ddc111e3cc12af7c7d473e908283a7bf4&profile_id=164
p52
sg11
Vhttps://player.vimeo.com/external/159647406.sd.mp4?s=44aa84533c7308b6114d29e880635bd42bcc8735&profile_id=164
p53
sg13
Vhttps://player.vimeo.com/external/159647423.sd.mp4?s=4864789be18fb01f2ec6a42b767a3eef8e26b992&profile_id=164
p54
sg15
Vhttps://player.vimeo.com/external/159647395.sd.mp4?s=70e5126cd0a257b09755569762b0c1917390d64a&profile_id=164
p55
sg17
Vhttps://player.vimeo.com/external/159647515.sd.mp4?s=281a23ca90344b806f506e97aabc419125d311b4&profile_id=164
p56
sg19
Vhttps://player.vimeo.com/external/159647541.sd.mp4?s=bdcf63cbce0986ff69758d59bce14af3bc30bbfa&profile_id=164
p57
sg21
Vhttps://player.vimeo.com/external/159647579.sd.mp4?s=1b46f0be89bc0f21aeb457145d1061b008a45ad8&profile_id=164
p58
sg23
Vhttps://player.vimeo.com/external/159647566.sd.mp4?s=b2ad5f082cc312c4cf550ef283a02501774e3107&profile_id=164
p59
sg25
Vhttps://player.vimeo.com/external/159647618.sd.mp4?s=35dd4cba6ee61feef6ebcd781437b9b04364e335&profile_id=164
p60
sg27
Vhttps://player.vimeo.com/external/159647598.sd.mp4?s=18b09bdbdfeafe8404fb0cf64004081cb3c020c9&profile_id=164
p61
sg29
Vhttps://player.vimeo.com/external/159647694.sd.mp4?s=f2a71db5f38ee5a1643b02308e6100e7afade529&profile_id=164
p62
ss.