(dp0
S'159647579'
p1
V22.87
p2
sS'159647541'
p3
S'16.32'
p4
sS'159647473'
p5
S'10.69'
p6
sS'159647566'
p7
V23
p8
sS'159647493'
p9
S'3.97'
p10
sS'159647459'
p11
V19.99
p12
sS'159647618'
p13
V26.76
p14
sS'159647436'
p15
S'15.58'
p16
sS'159647395'
p17
V16.41
p18
sS'159647515'
p19
S'7.68'
p20
sS'159647423'
p21
V18.54
p22
sS'159647406'
p23
V19.37
p24
sS'159647694'
p25
V28.33
p26
sS'159647598'
p27
V20.5
p28
s.