(dp0
S'155801662'
p1
V122.67
p2
sS'155802424'
p3
V90.18
p4
sS'155804785'
p5
V180.04
p6
sS'155806801'
p7
V83.57
p8
sS'155804781'
p9
V61.04
p10
sS'155804780'
p11
V34.05
p12
sS'155808314'
p13
V153.05
p14
sS'155802386'
p15
V154.41
p16
sS'155802382'
p17
V117.59
p18
sS'155801676'
p19
V90.95
p20
sS'155801674'
p21
V207.6
p22
sS'155804024'
p23
V123.97
p24
sS'155802393'
p25
V98.2
p26
sS'155802397'
p27
V138.46
p28
sS'155803155'
p29
V206.85
p30
sS'155803156'
p31
V155.67
p32
sS'155803150'
p33
V134.19
p34
sS'155801649'
p35
V34.14
p36
sS'155802402'
p37
V129.26
p38
sS'155806193'
p39
V119.73
p40
sS'155803147'
p41
V94.23
p42
sS'155803145'
p43
V132.01
p44
sS'155801702'
p45
V29.12
p46
sS'156085459'
p47
V139.33
p48
sS'155804036'
p49
V98.65
p50
sS'155804035'
p51
V54.19
p52
sS'155807039'
p53
V185.54
p54
sS'155804033'
p55
V61.57
p56
sS'155804032'
p57
V47.51
p58
sS'155804031'
p59
V160.84
p60
sS'156085451'
p61
V78.06
p62
sS'155803200'
p63
V86.55
p64
sS'156085453'
p65
V120.77
p66
sS'156085452'
p67
V189.29
p68
sS'156085455'
p69
V143.37
p70
sS'156085456'
p71
V147.42
p72
sS'155804037'
p73
V112.34
p74
sS'155803173'
p75
V92.44
p76
sS'155806727'
p77
V126.19
p78
sS'155804029'
p79
V115.8
p80
sS'155804023'
p81
V72.34
p82
sS'159642594'
p83
V129.56
p84
sS'155804025'
p85
V74.88
p86
sS'156085448'
p87
V173.4
p88
sS'156085449'
p89
V169.09
p90
sS'155803212'
p91
V125.19
p92
sS'155803213'
p93
V52.27
p94
sS'155803211'
p95
V85.49
p96
sS'156085447'
p97
V119.13
p98
sS'155801658'
p99
V46.77
p100
sS'155802348'
p101
V61.12
p102
sS'155802343'
p103
S'67.8'
p104
sS'155801651'
p105
V75.72
p106
sS'155801652'
p107
V82.56
p108
sS'155801653'
p109
V76.68
p110
sS'155801656'
p111
V171.89
p112
sS'155802344'
p113
V53.06
p114
sS'155801725'
p115
V64.54
p116
sS'158700024'
p117
V139.82
p118
sS'155801650'
p119
V54.06
p120
sS'155807244'
p121
V66.71
p122
sS'155803181'
p123
V191.75
p124
sS'155802345'
p125
V76.06
p126
sS'155802356'
p127
V105.67
p128
sS'155802350'
p129
V65.28
p130
sS'155802352'
p131
V106.37
p132
sS'155801683'
p133
V155.2
p134
sS'155804042'
p135
V128.07
p136
sS'155804043'
p137
V159.83
p138
sS'156085463'
p139
V89.94
p140
sS'156085464'
p141
V163.01
p142
sS'156247262'
p143
V78.47
p144
sS'156247263'
p145
V93.83
p146
sS'156247260'
p147
V51.86
p148
sS'156247261'
p149
V96.69
p150
sS'156247266'
p151
V110.3
p152
sS'156247267'
p153
V302.36
p154
sS'156247264'
p155
V133.14
p156
sS'156247265'
p157
V120.34
p158
sS'155804778'
p159
V37.14
p160
sS'158698500'
p161
V71
p162
sS'155805717'
p163
V296.2
p164
sS'159647694'
p165
V28.33
p166
sS'155805719'
p167
V96.62
p168
sS'155805718'
p169
V94.23
p170
sS'155808308'
p171
V112.96
p172
sS'155808305'
p173
V63.45
p174
sS'155808307'
p175
V49.52
p176
sS'155808301'
p177
V71.26
p178
sS'156247257'
p179
V97.86
p180
sS'156247256'
p181
V147.29
p182
sS'156247255'
p183
V80.52
p184
sS'156247258'
p185
V79.43
p186
s.