(dp0
S'1280x720'
p1
(dp2
VSABRINA 10
p3
Vhttps://player.vimeo.com/external/155803212.hd.mp4?s=dc324eb1e740c005af281a55adeaa0b2d1c71a8c&profile_id=113
p4
sVJULIO 04
p5
Vhttps://player.vimeo.com/external/155802348.hd.mp4?s=e062716042382c65104937b882185a30284d0bc8&profile_id=113
p6
sVSABRINA 11
p7
Vhttps://player.vimeo.com/external/155803213.sd.mp4?s=6eb131239369671acd61fed71509c64ccdf8d919&profile_id=165
p8
sVDRAO 09
p9
Vhttps://player.vimeo.com/external/156247263.hd.mp4?s=72d2723e1b76ff5f705b32d35678781fa11f5eac&profile_id=113
p10
sVDRAO 08
p11
Vhttps://player.vimeo.com/external/156247265.hd.mp4?s=f4eb8c1a112f1a7e6db596cea1378ab9eedfd368&profile_id=113
p12
sVDRAO 05
p13
Vhttps://player.vimeo.com/external/156247260.hd.mp4?s=746581d337d7a01c1fc24a9a7dca169825c352fb&profile_id=113
p14
sVDRAO 04
p15
Vhttps://player.vimeo.com/external/156247257.hd.mp4?s=976bca99a44aa5c1c32a9f3dfd57b5ba40548763&profile_id=113
p16
sVDRAO 07
p17
Vhttps://player.vimeo.com/external/156247262.hd.mp4?s=8418d5ed1a7b533618d6113226260ac48bd1099c&profile_id=113
p18
sVDRAO 06
p19
Vhttps://player.vimeo.com/external/156247261.hd.mp4?s=74c90e351d97a333697b626e3cafcd44709c2070&profile_id=113
p20
sVDRAO 01
p21
Vhttps://player.vimeo.com/external/156247255.hd.mp4?s=01e8a8f4cfcae447777ac9f918461ca8980ca9ee&profile_id=113
p22
sVJULIO 11
p23
Vhttps://player.vimeo.com/external/155802393.hd.mp4?s=fd7abed71e63e6eca17fea4fb1cac21048238c60&profile_id=113
p24
sVDRAO 03
p25
Vhttps://player.vimeo.com/external/156247258.hd.mp4?s=7b983b551e02962a4102270711da37576404b063&profile_id=113
p26
sVDRAO 02
p27
Vhttps://player.vimeo.com/external/156247256.hd.mp4?s=2b4621d60d5a4d81fa93485b4d5a3c66d8ef192d&profile_id=113
p28
sVSABRINA 04
p29
Vhttps://player.vimeo.com/external/155803155.hd.mp4?s=c6f919f31e41da32b83ca81923dee62753256714&profile_id=113
p30
sVSABRINA 05
p31
Vhttps://player.vimeo.com/external/155803156.hd.mp4?s=f43a80a296674d668bcabf38ea9e9dc72823f9c2&profile_id=113
p32
sVSABRINA 06
p33
Vhttps://player.vimeo.com/external/155803173.hd.mp4?s=3e6251fd7fb9ec9dca7b94c1e9cd01a4b775cd59&profile_id=113
p34
sVSABRINA 07
p35
Vhttps://player.vimeo.com/external/155803181.hd.mp4?s=78347a4668b92d5a874c677784d2f0b646a1c013&profile_id=113
p36
sVSABRINA 01
p37
Vhttps://player.vimeo.com/external/155803145.hd.mp4?s=f68ddc2d537d90db458889e576ffc11681fb4b34&profile_id=113
p38
sVSABRINA 02
p39
Vhttps://player.vimeo.com/external/155803147.hd.mp4?s=b1adeec7c8384351d4677d2799cf35a23287eea2&profile_id=113
p40
sVSABRINA 03
p41
Vhttps://player.vimeo.com/external/155803150.hd.mp4?s=1fd13ff17576932d1df2fdcb0be199624be2c50d&profile_id=113
p42
sVSABRINA 08
p43
Vhttps://player.vimeo.com/external/155803200.hd.mp4?s=f219bf5d9477f02d2e986df756409b586f07de4b&profile_id=113
p44
sVSABRINA 09
p45
Vhttps://player.vimeo.com/external/155803211.hd.mp4?s=cf30f93ee6b0458cd110acf0f0ab45f0b76a07ca&profile_id=113
p46
sVJULIO 10
p47
Vhttps://player.vimeo.com/external/155802382.hd.mp4?s=594a583cb65f5efb5a4e27b25ff3799896902fd9&profile_id=113
p48
sVJULIO 12
p49
Vhttps://player.vimeo.com/external/155802402.hd.mp4?s=4023c343672a64a58549b01bf81131cbf0f170b9&profile_id=113
p50
sVJULIO 13
p51
Vhttps://player.vimeo.com/external/155802397.hd.mp4?s=89b616c22c60e315fec30add4c795c88d97bb6f2&profile_id=113
p52
sVFECHAMENTO
p53
Vhttps://player.vimeo.com/external/158698500.hd.mp4?s=af37c4415a437bd733f1a58127c571ab03e34c99&profile_id=113
p54
sVJULIO 09
p55
Vhttps://player.vimeo.com/external/155802424.hd.mp4?s=ed1c6a3a056ae2b8b811ab0b0f333cf280b52a56&profile_id=113
p56
sVJULIO 08
p57
Vhttps://player.vimeo.com/external/155802386.hd.mp4?s=6265392b50f95d218ca8ee40648103294f370cf0&profile_id=113
p58
sVDRAO 12
p59
Vhttps://player.vimeo.com/external/156247267.hd.mp4?s=2fff0274f9e090fb45cf0eeb20768352f3cf4458&profile_id=113
p60
sVCAZE 10
p61
Vhttps://player.vimeo.com/external/155804036.hd.mp4?s=c14994b7e1eac86a2b51ea092bac98d206d3744e&profile_id=113
p62
sVJULIO 05
p63
Vhttps://player.vimeo.com/external/155802350.hd.mp4?s=bd29e990652f4547771db3cf67625d498c397f38&profile_id=113
p64
sVDRAO 11
p65
Vhttps://player.vimeo.com/external/156247266.hd.mp4?s=05233e4cffb1cc2e8ee9be9b26d9d1bc4e241d85&profile_id=113
p66
sVJULIO 03
p67
Vhttps://player.vimeo.com/external/155802345.hd.mp4?s=96ead6a52c214be18a2a0d9e9177fa45e4b895c1&profile_id=113
p68
sVJULIO 02
p69
Vhttps://player.vimeo.com/external/155802344.hd.mp4?s=06c90f13c12b329f2aaf944cad2c7324cffca811&profile_id=113
p70
sVJULIO 01
p71
Vhttps://player.vimeo.com/external/155802343.hd.mp4?s=cf19144018dd4b6e808e3c207b56d948e11beb08&profile_id=113
p72
sVDANIEL 05
p73
Vhttps://player.vimeo.com/external/156085452.hd.mp4?s=8c387880f1d43f9ba4c811e84869a5573ab9501a&profile_id=113
p74
sVCAZE 06
p75
Vhttps://player.vimeo.com/external/155804032.hd.mp4?s=90f0f402c26153bfe69fd172ba7465a95fcd1f52&profile_id=113
p76
sVCAZE 07
p77
Vhttps://player.vimeo.com/external/155804033.hd.mp4?s=c0770e97c3c354d2d6478dbcc7e7df46163c6849&profile_id=113
p78
sVCAZE 04
p79
Vhttps://player.vimeo.com/external/155804029.hd.mp4?s=99b2859dc24fc4e6a221ad038cad80e1140bf8dd&profile_id=113
p80
sVCAZE 05
p81
Vhttps://player.vimeo.com/external/155804031.hd.mp4?s=e344b6e2b2e705257b7984ffab0dc6f6c2d9bd4f&profile_id=113
p82
sVCAZE 02
p83
Vhttps://player.vimeo.com/external/155804024.hd.mp4?s=745b542ebfd5e4ccdc96b6a2241a27ce3e22d3ac&profile_id=113
p84
sVCAZE 03
p85
Vhttps://player.vimeo.com/external/155804025.hd.mp4?s=f2bdc055c2f1eaf013eb4ce6f89f4e95d49fe9b2&profile_id=113
p86
sVCAZE 01
p87
Vhttps://player.vimeo.com/external/155804023.hd.mp4?s=6491883de8f5a493e727c2592e3f9ab53951cc01&profile_id=113
p88
sVCAZE 13 - ENCERRAMENTO
p89
Vhttps://player.vimeo.com/external/155805719.hd.mp4?s=9d32be9b22f7caf1b35a75ad4a63fe2e9261e3d5&profile_id=113
p90
sVDRAO CAMADUCAIA
p91
Vhttps://player.vimeo.com/external/158700024.sd.mp4?s=13d21a4272f3fed742227b0eb146e1f92b858a97&profile_id=165
p92
sVCAZE 08
p93
Vhttps://player.vimeo.com/external/155804042.hd.mp4?s=4b6497063c328b4ab62daab9b2632f30e99b2e72&profile_id=113
p94
sVDIGA 12
p95
Vhttps://player.vimeo.com/external/155801683.hd.mp4?s=bbd6eecc7353f31aae977b66104efaf96d0679bd&profile_id=113
p96
sVDIGA 14
p97
Vhttps://player.vimeo.com/external/159642594.hd.mp4?s=6754830e5b908a859e4bee69322dfe97a535033e&profile_id=113
p98
sVDIGA 13
p99
Vhttps://player.vimeo.com/external/155801702.hd.mp4?s=18745c1b78060d34758fad9cb913afc8aa8e390a&profile_id=113
p100
sVCAZE 12
p101
Vhttps://player.vimeo.com/external/155804035.hd.mp4?s=deda066ca0d532034493fe25f7a384cf4071b419&profile_id=113
p102
sVDIGA 11
p103
Vhttps://player.vimeo.com/external/155801725.hd.mp4?s=b488140653e37f716c17572383c2fce870fede5a&profile_id=113
p104
sVDIGA 10
p105
Vhttps://player.vimeo.com/external/155801676.hd.mp4?s=f2f789f1f5fce76bfec391e689277440a06e10c2&profile_id=113
p106
sVCAZE 09
p107
Vhttps://player.vimeo.com/external/155804043.hd.mp4?s=b735b8ac97eb0f88dcb28cdb74abe4fb667db4f6&profile_id=113
p108
sVDIGA 04
p109
Vhttps://player.vimeo.com/external/155801652.hd.mp4?s=e854107deee7430da03b4c1fe83124b49fe3dfb4&profile_id=113
p110
sVDIGA 05
p111
Vhttps://player.vimeo.com/external/155801653.hd.mp4?s=57f3c10fbfa15698ad3ca3d3bee9294d152c3de9&profile_id=113
p112
sVDIGA 06
p113
Vhttps://player.vimeo.com/external/155801656.hd.mp4?s=1fdcd9e118b06c96477be38a3ad9bfb5741f117d&profile_id=113
p114
sVDIGA 07
p115
Vhttps://player.vimeo.com/external/155801658.hd.mp4?s=530d32088a440fe7eede40049b6281b346f375bb&profile_id=113
p116
sVDIGA 01
p117
Vhttps://player.vimeo.com/external/155801649.hd.mp4?s=694b58d9d8d9c935fbdb676b30919d5349b5e9d8&profile_id=113
p118
sVDIGA 02
p119
Vhttps://player.vimeo.com/external/155801650.hd.mp4?s=12647e80a4f7572f866d7a33c2e369dc81cb175f&profile_id=113
p120
sVDIGA 03
p121
Vhttps://player.vimeo.com/external/155801651.hd.mp4?s=fe0f00664d1a6f1ec3e1527a655f7ef5a2f9e6b9&profile_id=113
p122
sVDIGA 08
p123
Vhttps://player.vimeo.com/external/155801662.hd.mp4?s=9b838bd0c24ad07a787ff389f75c08365b4549d2&profile_id=113
p124
sVDIGA 09
p125
Vhttps://player.vimeo.com/external/155801674.hd.mp4?s=5c8b147c29645010d9428dbb8b52ee7aefcca0d0&profile_id=113
p126
sVDANIEL 11
p127
Vhttps://player.vimeo.com/external/156085464.hd.mp4?s=db4752af423cd3e8660c8ac6c246100d2ae3f46e&profile_id=113
p128
sVDANIEL 10
p129
Vhttps://player.vimeo.com/external/156085463.hd.mp4?s=f9fd3d3faf83b9c8d149dea71c4f340eb2e0b3b6&profile_id=113
p130
sVBERGMAN 04
p131
Vhttps://player.vimeo.com/external/155807039.hd.mp4?s=b0b957424eba221a288c5fac5dc5de73dae3b18a&profile_id=113
p132
sVBERGMAN 05
p133
Vhttps://player.vimeo.com/external/155807244.hd.mp4?s=f525dd9fed52749abd6e9eb98f603935f68f98a8&profile_id=113
p134
sVBERGMAN 06
p135
Vhttps://player.vimeo.com/external/155808301.hd.mp4?s=3e49eaedbd031c31d3ed75d16d3c5aaed3f3944e&profile_id=113
p136
sVBERGMAN 07
p137
Vhttps://player.vimeo.com/external/155808305.hd.mp4?s=9c62b550f90701e22cb6554468250a568c0776cd&profile_id=113
p138
sVBERGMAN 01
p139
Vhttps://player.vimeo.com/external/155806193.hd.mp4?s=53677679517fa97c9cb52d1004411bdedf236c7e&profile_id=113
p140
sVBERGMAN 02
p141
Vhttps://player.vimeo.com/external/155806727.hd.mp4?s=69e5549457bb3ae08c4fb6b68e2a74e583959f00&profile_id=113
p142
sVBERGMAN 03
p143
Vhttps://player.vimeo.com/external/155806801.hd.mp4?s=48a76c253f31b45b4a011992b34c7a1798eafb24&profile_id=113
p144
sVBERGMAN 08
p145
Vhttps://player.vimeo.com/external/155808307.hd.mp4?s=e085af06b8cf64300e129b61adf026c8d42eac7c&profile_id=113
p146
sVBERGMAN 09
p147
Vhttps://player.vimeo.com/external/155808308.hd.mp4?s=fd5b20730d27af81b70a2aa68b464203ac3be16b&profile_id=113
p148
sVCAZE 13 - ABERTURA
p149
Vhttps://player.vimeo.com/external/155804778.hd.mp4?s=404c4f22b2d58b0e8c186e907707f6fae85a5b7a&profile_id=113
p150
sVJULIO 07
p151
Vhttps://player.vimeo.com/external/155802356.hd.mp4?s=a341046b7b7abe2572018348f0ce1a5c907a2d84&profile_id=113
p152
sVCAZE 13 - DEPOIMENTO 1
p153
Vhttps://player.vimeo.com/external/155804780.hd.mp4?s=fd60003e4af820fd1c34ebcb1dc683a96b07ce9c&profile_id=113
p154
sVCAZE 13 - DEPOIMENTO 2
p155
Vhttps://player.vimeo.com/external/155804781.hd.mp4?s=7808adedcab6977983b69494efb0ed3f48a9fc07&profile_id=113
p156
sVCAZE 13 - DEPOIMENTO 3
p157
Vhttps://player.vimeo.com/external/155804785.hd.mp4?s=012653ee5909693f71344f1b88aa717240a1da4e&profile_id=113
p158
sVCAZE 13 - DEPOIMENTO 4
p159
Vhttps://player.vimeo.com/external/155805717.hd.mp4?s=52fd11caf9094fb542e0f61218b4389412d3d4a0&profile_id=113
p160
sVCAZE 13 - DEPOIMENTO 5
p161
Vhttps://player.vimeo.com/external/155805718.sd.mp4?s=f6267af222b3c16d7ba635d53f9d8adaaa8fb43e&profile_id=165
p162
sVDANIEL 08
p163
Vhttps://player.vimeo.com/external/156085456.hd.mp4?s=6199d4ac9ab8dccb48075c6c579d2cc29e04fac5&profile_id=113
p164
sVDANIEL 09
p165
Vhttps://player.vimeo.com/external/156085459.hd.mp4?s=ef4f8b9e58c6fc9d549971dfe64c3b0f8ebe77b3&profile_id=113
p166
sVDANIEL 06
p167
Vhttps://player.vimeo.com/external/156085455.hd.mp4?s=e0b28652023be41065f0e23c04734b6cc8fd8755&profile_id=113
p168
sVDANIEL 07
p169
Vhttps://player.vimeo.com/external/156085453.hd.mp4?s=e2ad900bcced1c7cb7213a3b16ad207df1ae35d4&profile_id=113
p170
sVDANIEL 04
p171
Vhttps://player.vimeo.com/external/156085451.hd.mp4?s=cd9b6a6f0cca3d07ff8e5a7ead111787ee6ac9e2&profile_id=113
p172
sVBERGMAN 10
p173
Vhttps://player.vimeo.com/external/155808314.hd.mp4?s=2a6a3a6450136717eb1b8cc6579ba234b615d1cd&profile_id=113
p174
sVDANIEL 02
p175
Vhttps://player.vimeo.com/external/156085448.hd.mp4?s=fa60d02d40ccfe7a3eeeed43f33e2fc9f53cd4a7&profile_id=113
p176
sVDANIEL 03
p177
Vhttps://player.vimeo.com/external/156085449.hd.mp4?s=1c22a0d398b8114eb6f347d81218bfff474e2fe8&profile_id=113
p178
sVDANIEL 01
p179
Vhttps://player.vimeo.com/external/156085447.hd.mp4?s=7da672e0ffe9b8ae09230d8b9290833a4ed37db7&profile_id=113
p180
sVCAZE 11
p181
Vhttps://player.vimeo.com/external/155804037.hd.mp4?s=14feaa2169fd54cab7d20a1575fe458a11dc40e6&profile_id=113
p182
sVJULIO 06
p183
Vhttps://player.vimeo.com/external/155802352.hd.mp4?s=e05565887d55ab8db23c061ab7ccb65860ea2f61&profile_id=113
p184
sVDRAO 10
p185
Vhttps://player.vimeo.com/external/156247264.hd.mp4?s=d654601aa4216b54cbd38ebc8b8fdeacc64e04a2&profile_id=113
p186
ssS'960x540'
p187
(dp188
g3
Vhttps://player.vimeo.com/external/155803212.sd.mp4?s=31e324d91e292523232d80b497ff3ad918dad9e5&profile_id=165
p189
sg5
Vhttps://player.vimeo.com/external/155802348.sd.mp4?s=39a14baf7f293f420351176a9be3389c7a122cfb&profile_id=165
p190
sg7
Vhttps://player.vimeo.com/external/155803213.sd.mp4?s=6eb131239369671acd61fed71509c64ccdf8d919&profile_id=112
p191
sg9
Vhttps://player.vimeo.com/external/156247263.sd.mp4?s=239e0f8eae79f4b431308a79fc8d068bc2c8e643&profile_id=165
p192
sg11
Vhttps://player.vimeo.com/external/156247265.sd.mp4?s=d1938ca98cc4d343f62743fa15ec5ea6e1d8bd19&profile_id=165
p193
sg13
Vhttps://player.vimeo.com/external/156247260.sd.mp4?s=5ed43dae76cb3ffdd28373eac3c88e4b898af4d9&profile_id=165
p194
sg15
Vhttps://player.vimeo.com/external/156247257.sd.mp4?s=04a25513be2dad94eb8fc929650a393d73f2e082&profile_id=165
p195
sg17
Vhttps://player.vimeo.com/external/156247262.sd.mp4?s=d02e8db88cd141e6fc5eb7bc18517ba3987f0c49&profile_id=165
p196
sg19
Vhttps://player.vimeo.com/external/156247261.sd.mp4?s=3963d0647201cab65a908d6ef7c01a2e26473f99&profile_id=165
p197
sg21
Vhttps://player.vimeo.com/external/156247255.sd.mp4?s=3135867d42df21a39abcfb537ba27bb88940a304&profile_id=165
p198
sg23
Vhttps://player.vimeo.com/external/155802393.sd.mp4?s=3ff7fffc43b7194d785375532296df3b4d234359&profile_id=165
p199
sg25
Vhttps://player.vimeo.com/external/156247258.sd.mp4?s=344023ebd1393c9620c7597a86919bca7edfcc09&profile_id=165
p200
sg27
Vhttps://player.vimeo.com/external/156247256.sd.mp4?s=a6e11f75d965a21f25f43aacf10c2aee3c27bcba&profile_id=165
p201
sg29
Vhttps://player.vimeo.com/external/155803155.sd.mp4?s=9d509d79f5b5130e9ceac296d994d7cca36d4ae5&profile_id=165
p202
sg31
Vhttps://player.vimeo.com/external/155803156.sd.mp4?s=9a01307839bd44fdb81de1055aa33ae850c382fe&profile_id=165
p203
sg33
Vhttps://player.vimeo.com/external/155803173.sd.mp4?s=20b91d265df2abacbe524ec3a2f5f944a21ffb82&profile_id=165
p204
sg35
Vhttps://player.vimeo.com/external/155803181.sd.mp4?s=a18c91d70eb1e4be5b268481924838c61703a3bd&profile_id=165
p205
sg37
Vhttps://player.vimeo.com/external/155803145.sd.mp4?s=44ae280e88876171a2d414a4c65c787dd8fecbc5&profile_id=165
p206
sg39
Vhttps://player.vimeo.com/external/155803147.sd.mp4?s=b6ecca492753a99cca1a5a3abaaa588250f7c16f&profile_id=165
p207
sg41
Vhttps://player.vimeo.com/external/155803150.sd.mp4?s=32123f02de71c8eb74dd9625dda35bcd5e831a44&profile_id=165
p208
sg43
Vhttps://player.vimeo.com/external/155803200.sd.mp4?s=891524a2eff927a848ddc7de4b68aa2b14e3dd24&profile_id=165
p209
sg45
Vhttps://player.vimeo.com/external/155803211.sd.mp4?s=89b36a8facdafcbeb5a672f8a78c79a6cb4f279d&profile_id=165
p210
sg47
Vhttps://player.vimeo.com/external/155802382.sd.mp4?s=4ea3d36f1fa3d25ec3916c8eab63a86f1d9776c2&profile_id=165
p211
sg49
Vhttps://player.vimeo.com/external/155802402.sd.mp4?s=fd4e8b081da7ec16ed90540423cadc22b4768a47&profile_id=165
p212
sg51
Vhttps://player.vimeo.com/external/155802397.sd.mp4?s=c4140f4c74b9bb24465d98fcccbcb616cee37c83&profile_id=165
p213
sg53
Vhttps://player.vimeo.com/external/158698500.sd.mp4?s=e412be05b97db8f077ec9a3d3c1bad93cbb502cd&profile_id=165
p214
sg55
Vhttps://player.vimeo.com/external/155802424.sd.mp4?s=97e6767f6b124a7b453d879ebf49a79bcefc8514&profile_id=165
p215
sg57
Vhttps://player.vimeo.com/external/155802386.sd.mp4?s=919f4da753c27d5ebf215cea16fb0a9e2e6f8286&profile_id=165
p216
sg59
Vhttps://player.vimeo.com/external/156247267.sd.mp4?s=6f2996d60e7a51d0ab71e9396e66c1efad650955&profile_id=165
p217
sg61
Vhttps://player.vimeo.com/external/155804036.sd.mp4?s=883d5664270ab7f8964b6bf04aca1f921eafdca1&profile_id=165
p218
sg63
Vhttps://player.vimeo.com/external/155802350.sd.mp4?s=42eb954802d23181dad31e946e3f43ea86e77721&profile_id=165
p219
sg65
Vhttps://player.vimeo.com/external/156247266.sd.mp4?s=861310036c45e626dc3cac69158fd78fe29ee089&profile_id=165
p220
sg67
Vhttps://player.vimeo.com/external/155802345.sd.mp4?s=0aaa35abb69c52bda9d31cd0d11b65141320c077&profile_id=165
p221
sg69
Vhttps://player.vimeo.com/external/155802344.sd.mp4?s=de012c93117090ad12f7232aa00955ecac0fe676&profile_id=165
p222
sg71
Vhttps://player.vimeo.com/external/155802343.sd.mp4?s=ed944c0c38ee6ab88237e47acab552e7813ad7de&profile_id=165
p223
sg73
Vhttps://player.vimeo.com/external/156085452.sd.mp4?s=9635fc782353a26118654f1defcde0d40223be47&profile_id=165
p224
sg75
Vhttps://player.vimeo.com/external/155804032.sd.mp4?s=14dcae4edb536d94d7b486add55639b4ec1c8e8a&profile_id=165
p225
sg77
Vhttps://player.vimeo.com/external/155804033.sd.mp4?s=afca8a29483e1ea14744636e71fd34d5dc7c30f8&profile_id=165
p226
sg79
Vhttps://player.vimeo.com/external/155804029.sd.mp4?s=2ea7c7ad590c76aaa967e4e966328a1a48de7d0f&profile_id=165
p227
sg81
Vhttps://player.vimeo.com/external/155804031.sd.mp4?s=f476140682101445e1b4f2481c61d07538cdafc5&profile_id=165
p228
sg83
Vhttps://player.vimeo.com/external/155804024.sd.mp4?s=b20acef0ad0b0155b77b9f39bd28c3cb0f60c48d&profile_id=165
p229
sg85
Vhttps://player.vimeo.com/external/155804025.sd.mp4?s=81542ec739055ba5eb594a9c5ec62f928b50bc0c&profile_id=165
p230
sg87
Vhttps://player.vimeo.com/external/155804023.sd.mp4?s=328b3cb3a45b6bb9559613682840af48b1308b2c&profile_id=165
p231
sg89
Vhttps://player.vimeo.com/external/155805719.sd.mp4?s=a22140bef104c44e13b596f649d33d4a7cef9f56&profile_id=165
p232
sg91
Vhttps://player.vimeo.com/external/158700024.sd.mp4?s=13d21a4272f3fed742227b0eb146e1f92b858a97&profile_id=164
p233
sg93
Vhttps://player.vimeo.com/external/155804042.sd.mp4?s=1bb032adbbf947cb10a610288ddb5b995eb78d65&profile_id=165
p234
sg95
Vhttps://player.vimeo.com/external/155801683.sd.mp4?s=c2fe023b382d2a52b3958538b41f0c4bd485829f&profile_id=165
p235
sg97
Vhttps://player.vimeo.com/external/159642594.sd.mp4?s=1c4cd906d8d3f5bd1184fc88bf97c19d03777fc2&profile_id=165
p236
sg99
Vhttps://player.vimeo.com/external/155801702.sd.mp4?s=1b18f3e9d202d8b00c9e5b90fae014f85043fafe&profile_id=165
p237
sg101
Vhttps://player.vimeo.com/external/155804035.sd.mp4?s=61c4dc5b4c9aefbd61f9e447256834a13689a04e&profile_id=165
p238
sg103
Vhttps://player.vimeo.com/external/155801725.sd.mp4?s=4a16d77b13f84ba2b08497dc3c242498c20722a1&profile_id=165
p239
sg105
Vhttps://player.vimeo.com/external/155801676.sd.mp4?s=c72f09d74aa099e5346169adee792ac1ab1acec5&profile_id=165
p240
sg107
Vhttps://player.vimeo.com/external/155804043.sd.mp4?s=fe598a545a5a88054a0ba1b1d801343a1fa2f0fa&profile_id=165
p241
sg109
Vhttps://player.vimeo.com/external/155801652.sd.mp4?s=7c4ed606c0e59710ac0893e63f565e1284c3fc41&profile_id=165
p242
sg111
Vhttps://player.vimeo.com/external/155801653.sd.mp4?s=86d15394af3b28d54995926d0814b2bc5cdd0b53&profile_id=165
p243
sg113
Vhttps://player.vimeo.com/external/155801656.sd.mp4?s=648338bcd9cda40f2f7c4867816b2332de653367&profile_id=165
p244
sg115
Vhttps://player.vimeo.com/external/155801658.sd.mp4?s=457e4e194336eb06f514b02b6a2d7d929adb9704&profile_id=165
p245
sg117
Vhttps://player.vimeo.com/external/155801649.sd.mp4?s=152426fc12907a2040e4fc07e635ecb68528c7cf&profile_id=165
p246
sg119
Vhttps://player.vimeo.com/external/155801650.sd.mp4?s=1370103c42e587c88a2d68b795500af94eaa0c02&profile_id=165
p247
sg121
Vhttps://player.vimeo.com/external/155801651.sd.mp4?s=87fc1981b7d5a24c9e21a52765e34e7afd4248e5&profile_id=165
p248
sg123
Vhttps://player.vimeo.com/external/155801662.sd.mp4?s=10c363aaa049f59cebe7552663c429338905f6cf&profile_id=165
p249
sg125
Vhttps://player.vimeo.com/external/155801674.sd.mp4?s=764cd09f42b3e1531ebfd287cdc7a6c204490377&profile_id=165
p250
sg127
Vhttps://player.vimeo.com/external/156085464.sd.mp4?s=7f728563a14b429610ae4d070836957df0b3b9fd&profile_id=165
p251
sg129
Vhttps://player.vimeo.com/external/156085463.sd.mp4?s=707bacbbc610a84fa053443a2fc1d55f2530b201&profile_id=165
p252
sg131
Vhttps://player.vimeo.com/external/155807039.sd.mp4?s=9cd21e34cbddd0783a9656881d08e77f02a8e40d&profile_id=165
p253
sg133
Vhttps://player.vimeo.com/external/155807244.sd.mp4?s=8f053c3ce21d7e14cd2796c8ed7832559d27b214&profile_id=165
p254
sg135
Vhttps://player.vimeo.com/external/155808301.sd.mp4?s=a206bd27102378c2f07bc81cb1b87a509fb23846&profile_id=165
p255
sg137
Vhttps://player.vimeo.com/external/155808305.sd.mp4?s=e097115e79a9371701fb2a601b4ba792a24d1170&profile_id=165
p256
sg139
Vhttps://player.vimeo.com/external/155806193.sd.mp4?s=48e008c1431620da194bd8fb1fb0e6a31dc8b72c&profile_id=165
p257
sg141
Vhttps://player.vimeo.com/external/155806727.sd.mp4?s=3400c1981a7f062c6a40e932f6ca6a5d07fea5c7&profile_id=165
p258
sg143
Vhttps://player.vimeo.com/external/155806801.sd.mp4?s=82d1e262336aeae0c361739b1324ab59533a7318&profile_id=165
p259
sg145
Vhttps://player.vimeo.com/external/155808307.sd.mp4?s=c8a70931735822fef30e41719ef9d187047e6f24&profile_id=165
p260
sg147
Vhttps://player.vimeo.com/external/155808308.sd.mp4?s=6e86f96ea850efba7a573e644f5e26ebf9029769&profile_id=165
p261
sg149
Vhttps://player.vimeo.com/external/155804778.sd.mp4?s=9616f991fee85f03f037d17dd1c656a3ebd9e305&profile_id=165
p262
sg151
Vhttps://player.vimeo.com/external/155802356.sd.mp4?s=01b01f5018c399a802949e9dc89b9d787b8a990c&profile_id=165
p263
sg153
Vhttps://player.vimeo.com/external/155804780.sd.mp4?s=bf2f27a03f76180a5bf314a49c93e35c56641000&profile_id=165
p264
sg155
Vhttps://player.vimeo.com/external/155804781.sd.mp4?s=d76cc3bbe52cdb75b6fa4dc9df19ac390cc440cf&profile_id=165
p265
sg157
Vhttps://player.vimeo.com/external/155804785.sd.mp4?s=fdc878cf2fbdc44f7748816a23828bfab0e047aa&profile_id=165
p266
sg159
Vhttps://player.vimeo.com/external/155805717.sd.mp4?s=34159826d843ba608160c76e6b2071eceb45cf8a&profile_id=165
p267
sg161
Vhttps://player.vimeo.com/external/155805718.sd.mp4?s=f6267af222b3c16d7ba635d53f9d8adaaa8fb43e&profile_id=112
p268
sg163
Vhttps://player.vimeo.com/external/156085456.sd.mp4?s=1042d7274e4f397c9adba7bbe9e517bdddad555d&profile_id=165
p269
sg165
Vhttps://player.vimeo.com/external/156085459.sd.mp4?s=3417a828e5cfc2f276e22fa4ee5b2cc385197e83&profile_id=165
p270
sg167
Vhttps://player.vimeo.com/external/156085455.sd.mp4?s=0197f14058dddab69a4fd48d4d71ec3aaa9da3ce&profile_id=165
p271
sg169
Vhttps://player.vimeo.com/external/156085453.sd.mp4?s=ca2578b4bfe518d7b164ce0492a951120a9b9422&profile_id=165
p272
sg171
Vhttps://player.vimeo.com/external/156085451.sd.mp4?s=ade8c745110f9c4997e858e515b63d70d07ac45d&profile_id=165
p273
sg173
Vhttps://player.vimeo.com/external/155808314.sd.mp4?s=7b3608549ce98c24c0621b0de4c009cf6a21a451&profile_id=165
p274
sg175
Vhttps://player.vimeo.com/external/156085448.sd.mp4?s=f5c0dbd4d530941662b7970d70c36bb8debd5e02&profile_id=165
p275
sg177
Vhttps://player.vimeo.com/external/156085449.sd.mp4?s=9ad2808ac5a2ab6fcd9b8cec24427b042797be44&profile_id=165
p276
sg179
Vhttps://player.vimeo.com/external/156085447.sd.mp4?s=3cd0412bc2284db473e0b0abb20591c27d773079&profile_id=165
p277
sg181
Vhttps://player.vimeo.com/external/155804037.sd.mp4?s=20d5c66ff31d825d690a3fc9e5128e519d4be3af&profile_id=165
p278
sg183
Vhttps://player.vimeo.com/external/155802352.sd.mp4?s=662ffaa45cc6d7628bfdae03791cc5b469c51130&profile_id=165
p279
sg185
Vhttps://player.vimeo.com/external/156247264.sd.mp4?s=43dbfaba717b3d9bd0808226a5ee9d315ad5f7e7&profile_id=165
p280
ssS'640x360'
p281
(dp282
g3
Vhttps://player.vimeo.com/external/155803212.sd.mp4?s=31e324d91e292523232d80b497ff3ad918dad9e5&profile_id=164
p283
sg5
Vhttps://player.vimeo.com/external/155802348.sd.mp4?s=39a14baf7f293f420351176a9be3389c7a122cfb&profile_id=164
p284
sg7
S'GET'
p285
sg9
Vhttps://player.vimeo.com/external/156247263.sd.mp4?s=239e0f8eae79f4b431308a79fc8d068bc2c8e643&profile_id=164
p286
sg11
Vhttps://player.vimeo.com/external/156247265.sd.mp4?s=d1938ca98cc4d343f62743fa15ec5ea6e1d8bd19&profile_id=164
p287
sg13
Vhttps://player.vimeo.com/external/156247260.sd.mp4?s=5ed43dae76cb3ffdd28373eac3c88e4b898af4d9&profile_id=164
p288
sg15
Vhttps://player.vimeo.com/external/156247257.sd.mp4?s=04a25513be2dad94eb8fc929650a393d73f2e082&profile_id=164
p289
sg17
Vhttps://player.vimeo.com/external/156247262.sd.mp4?s=d02e8db88cd141e6fc5eb7bc18517ba3987f0c49&profile_id=164
p290
sg19
Vhttps://player.vimeo.com/external/156247261.sd.mp4?s=3963d0647201cab65a908d6ef7c01a2e26473f99&profile_id=164
p291
sg21
Vhttps://player.vimeo.com/external/156247255.sd.mp4?s=3135867d42df21a39abcfb537ba27bb88940a304&profile_id=164
p292
sg23
Vhttps://player.vimeo.com/external/155802393.sd.mp4?s=3ff7fffc43b7194d785375532296df3b4d234359&profile_id=164
p293
sg25
Vhttps://player.vimeo.com/external/156247258.sd.mp4?s=344023ebd1393c9620c7597a86919bca7edfcc09&profile_id=164
p294
sg27
Vhttps://player.vimeo.com/external/156247256.sd.mp4?s=a6e11f75d965a21f25f43aacf10c2aee3c27bcba&profile_id=164
p295
sg29
Vhttps://player.vimeo.com/external/155803155.sd.mp4?s=9d509d79f5b5130e9ceac296d994d7cca36d4ae5&profile_id=164
p296
sg31
Vhttps://player.vimeo.com/external/155803156.sd.mp4?s=9a01307839bd44fdb81de1055aa33ae850c382fe&profile_id=164
p297
sg33
Vhttps://player.vimeo.com/external/155803173.sd.mp4?s=20b91d265df2abacbe524ec3a2f5f944a21ffb82&profile_id=164
p298
sg35
Vhttps://player.vimeo.com/external/155803181.sd.mp4?s=a18c91d70eb1e4be5b268481924838c61703a3bd&profile_id=164
p299
sg37
Vhttps://player.vimeo.com/external/155803145.sd.mp4?s=44ae280e88876171a2d414a4c65c787dd8fecbc5&profile_id=164
p300
sg39
Vhttps://player.vimeo.com/external/155803147.sd.mp4?s=b6ecca492753a99cca1a5a3abaaa588250f7c16f&profile_id=164
p301
sg41
Vhttps://player.vimeo.com/external/155803150.sd.mp4?s=32123f02de71c8eb74dd9625dda35bcd5e831a44&profile_id=164
p302
sg43
Vhttps://player.vimeo.com/external/155803200.sd.mp4?s=891524a2eff927a848ddc7de4b68aa2b14e3dd24&profile_id=164
p303
sg45
Vhttps://player.vimeo.com/external/155803211.sd.mp4?s=89b36a8facdafcbeb5a672f8a78c79a6cb4f279d&profile_id=164
p304
sg47
Vhttps://player.vimeo.com/external/155802382.sd.mp4?s=4ea3d36f1fa3d25ec3916c8eab63a86f1d9776c2&profile_id=164
p305
sg49
Vhttps://player.vimeo.com/external/155802402.sd.mp4?s=fd4e8b081da7ec16ed90540423cadc22b4768a47&profile_id=164
p306
sg51
Vhttps://player.vimeo.com/external/155802397.sd.mp4?s=c4140f4c74b9bb24465d98fcccbcb616cee37c83&profile_id=164
p307
sg53
Vhttps://player.vimeo.com/external/158698500.sd.mp4?s=e412be05b97db8f077ec9a3d3c1bad93cbb502cd&profile_id=164
p308
sg55
Vhttps://player.vimeo.com/external/155802424.sd.mp4?s=97e6767f6b124a7b453d879ebf49a79bcefc8514&profile_id=164
p309
sg57
Vhttps://player.vimeo.com/external/155802386.sd.mp4?s=919f4da753c27d5ebf215cea16fb0a9e2e6f8286&profile_id=164
p310
sg59
Vhttps://player.vimeo.com/external/156247267.sd.mp4?s=6f2996d60e7a51d0ab71e9396e66c1efad650955&profile_id=164
p311
sg61
Vhttps://player.vimeo.com/external/155804036.sd.mp4?s=883d5664270ab7f8964b6bf04aca1f921eafdca1&profile_id=164
p312
sg63
Vhttps://player.vimeo.com/external/155802350.sd.mp4?s=42eb954802d23181dad31e946e3f43ea86e77721&profile_id=164
p313
sg65
Vhttps://player.vimeo.com/external/156247266.sd.mp4?s=861310036c45e626dc3cac69158fd78fe29ee089&profile_id=164
p314
sg67
Vhttps://player.vimeo.com/external/155802345.sd.mp4?s=0aaa35abb69c52bda9d31cd0d11b65141320c077&profile_id=164
p315
sg69
Vhttps://player.vimeo.com/external/155802344.sd.mp4?s=de012c93117090ad12f7232aa00955ecac0fe676&profile_id=164
p316
sg71
Vhttps://player.vimeo.com/external/155802343.sd.mp4?s=ed944c0c38ee6ab88237e47acab552e7813ad7de&profile_id=164
p317
sg73
Vhttps://player.vimeo.com/external/156085452.sd.mp4?s=9635fc782353a26118654f1defcde0d40223be47&profile_id=164
p318
sg75
Vhttps://player.vimeo.com/external/155804032.sd.mp4?s=14dcae4edb536d94d7b486add55639b4ec1c8e8a&profile_id=164
p319
sg77
Vhttps://player.vimeo.com/external/155804033.sd.mp4?s=afca8a29483e1ea14744636e71fd34d5dc7c30f8&profile_id=164
p320
sg79
Vhttps://player.vimeo.com/external/155804029.sd.mp4?s=2ea7c7ad590c76aaa967e4e966328a1a48de7d0f&profile_id=164
p321
sg81
Vhttps://player.vimeo.com/external/155804031.sd.mp4?s=f476140682101445e1b4f2481c61d07538cdafc5&profile_id=164
p322
sg83
Vhttps://player.vimeo.com/external/155804024.sd.mp4?s=b20acef0ad0b0155b77b9f39bd28c3cb0f60c48d&profile_id=164
p323
sg85
Vhttps://player.vimeo.com/external/155804025.sd.mp4?s=81542ec739055ba5eb594a9c5ec62f928b50bc0c&profile_id=164
p324
sg87
Vhttps://player.vimeo.com/external/155804023.sd.mp4?s=328b3cb3a45b6bb9559613682840af48b1308b2c&profile_id=164
p325
sg89
Vhttps://player.vimeo.com/external/155805719.sd.mp4?s=a22140bef104c44e13b596f649d33d4a7cef9f56&profile_id=164
p326
sg91
g285
sg93
Vhttps://player.vimeo.com/external/155804042.sd.mp4?s=1bb032adbbf947cb10a610288ddb5b995eb78d65&profile_id=164
p327
sg95
Vhttps://player.vimeo.com/external/155801683.sd.mp4?s=c2fe023b382d2a52b3958538b41f0c4bd485829f&profile_id=164
p328
sg97
Vhttps://player.vimeo.com/external/159642594.sd.mp4?s=1c4cd906d8d3f5bd1184fc88bf97c19d03777fc2&profile_id=164
p329
sg99
Vhttps://player.vimeo.com/external/155801702.sd.mp4?s=1b18f3e9d202d8b00c9e5b90fae014f85043fafe&profile_id=164
p330
sg101
Vhttps://player.vimeo.com/external/155804035.sd.mp4?s=61c4dc5b4c9aefbd61f9e447256834a13689a04e&profile_id=164
p331
sg103
Vhttps://player.vimeo.com/external/155801725.sd.mp4?s=4a16d77b13f84ba2b08497dc3c242498c20722a1&profile_id=164
p332
sg105
Vhttps://player.vimeo.com/external/155801676.sd.mp4?s=c72f09d74aa099e5346169adee792ac1ab1acec5&profile_id=164
p333
sg107
Vhttps://player.vimeo.com/external/155804043.sd.mp4?s=fe598a545a5a88054a0ba1b1d801343a1fa2f0fa&profile_id=164
p334
sg109
Vhttps://player.vimeo.com/external/155801652.sd.mp4?s=7c4ed606c0e59710ac0893e63f565e1284c3fc41&profile_id=164
p335
sg111
Vhttps://player.vimeo.com/external/155801653.sd.mp4?s=86d15394af3b28d54995926d0814b2bc5cdd0b53&profile_id=164
p336
sg113
Vhttps://player.vimeo.com/external/155801656.sd.mp4?s=648338bcd9cda40f2f7c4867816b2332de653367&profile_id=164
p337
sg115
Vhttps://player.vimeo.com/external/155801658.sd.mp4?s=457e4e194336eb06f514b02b6a2d7d929adb9704&profile_id=164
p338
sg117
Vhttps://player.vimeo.com/external/155801649.sd.mp4?s=152426fc12907a2040e4fc07e635ecb68528c7cf&profile_id=164
p339
sg119
Vhttps://player.vimeo.com/external/155801650.sd.mp4?s=1370103c42e587c88a2d68b795500af94eaa0c02&profile_id=164
p340
sg121
Vhttps://player.vimeo.com/external/155801651.sd.mp4?s=87fc1981b7d5a24c9e21a52765e34e7afd4248e5&profile_id=164
p341
sg123
Vhttps://player.vimeo.com/external/155801662.sd.mp4?s=10c363aaa049f59cebe7552663c429338905f6cf&profile_id=164
p342
sg125
Vhttps://player.vimeo.com/external/155801674.sd.mp4?s=764cd09f42b3e1531ebfd287cdc7a6c204490377&profile_id=164
p343
sg127
Vhttps://player.vimeo.com/external/156085464.sd.mp4?s=7f728563a14b429610ae4d070836957df0b3b9fd&profile_id=164
p344
sg129
Vhttps://player.vimeo.com/external/156085463.sd.mp4?s=707bacbbc610a84fa053443a2fc1d55f2530b201&profile_id=164
p345
sg131
Vhttps://player.vimeo.com/external/155807039.sd.mp4?s=9cd21e34cbddd0783a9656881d08e77f02a8e40d&profile_id=164
p346
sg133
Vhttps://player.vimeo.com/external/155807244.sd.mp4?s=8f053c3ce21d7e14cd2796c8ed7832559d27b214&profile_id=164
p347
sg135
Vhttps://player.vimeo.com/external/155808301.sd.mp4?s=a206bd27102378c2f07bc81cb1b87a509fb23846&profile_id=164
p348
sg137
Vhttps://player.vimeo.com/external/155808305.sd.mp4?s=e097115e79a9371701fb2a601b4ba792a24d1170&profile_id=164
p349
sg139
Vhttps://player.vimeo.com/external/155806193.sd.mp4?s=48e008c1431620da194bd8fb1fb0e6a31dc8b72c&profile_id=164
p350
sg141
Vhttps://player.vimeo.com/external/155806727.sd.mp4?s=3400c1981a7f062c6a40e932f6ca6a5d07fea5c7&profile_id=164
p351
sg143
Vhttps://player.vimeo.com/external/155806801.sd.mp4?s=82d1e262336aeae0c361739b1324ab59533a7318&profile_id=164
p352
sg145
Vhttps://player.vimeo.com/external/155808307.sd.mp4?s=c8a70931735822fef30e41719ef9d187047e6f24&profile_id=164
p353
sg147
Vhttps://player.vimeo.com/external/155808308.sd.mp4?s=6e86f96ea850efba7a573e644f5e26ebf9029769&profile_id=164
p354
sg149
Vhttps://player.vimeo.com/external/155804778.sd.mp4?s=9616f991fee85f03f037d17dd1c656a3ebd9e305&profile_id=164
p355
sg151
Vhttps://player.vimeo.com/external/155802356.sd.mp4?s=01b01f5018c399a802949e9dc89b9d787b8a990c&profile_id=164
p356
sg153
Vhttps://player.vimeo.com/external/155804780.sd.mp4?s=bf2f27a03f76180a5bf314a49c93e35c56641000&profile_id=164
p357
sg155
Vhttps://player.vimeo.com/external/155804781.sd.mp4?s=d76cc3bbe52cdb75b6fa4dc9df19ac390cc440cf&profile_id=164
p358
sg157
Vhttps://player.vimeo.com/external/155804785.sd.mp4?s=fdc878cf2fbdc44f7748816a23828bfab0e047aa&profile_id=164
p359
sg159
Vhttps://player.vimeo.com/external/155805717.sd.mp4?s=34159826d843ba608160c76e6b2071eceb45cf8a&profile_id=164
p360
sg161
g285
sg163
Vhttps://player.vimeo.com/external/156085456.sd.mp4?s=1042d7274e4f397c9adba7bbe9e517bdddad555d&profile_id=164
p361
sg165
Vhttps://player.vimeo.com/external/156085459.sd.mp4?s=3417a828e5cfc2f276e22fa4ee5b2cc385197e83&profile_id=164
p362
sg167
Vhttps://player.vimeo.com/external/156085455.sd.mp4?s=0197f14058dddab69a4fd48d4d71ec3aaa9da3ce&profile_id=164
p363
sg169
Vhttps://player.vimeo.com/external/156085453.sd.mp4?s=ca2578b4bfe518d7b164ce0492a951120a9b9422&profile_id=164
p364
sg171
Vhttps://player.vimeo.com/external/156085451.sd.mp4?s=ade8c745110f9c4997e858e515b63d70d07ac45d&profile_id=164
p365
sg173
Vhttps://player.vimeo.com/external/155808314.sd.mp4?s=7b3608549ce98c24c0621b0de4c009cf6a21a451&profile_id=164
p366
sg175
Vhttps://player.vimeo.com/external/156085448.sd.mp4?s=f5c0dbd4d530941662b7970d70c36bb8debd5e02&profile_id=164
p367
sg177
Vhttps://player.vimeo.com/external/156085449.sd.mp4?s=9ad2808ac5a2ab6fcd9b8cec24427b042797be44&profile_id=164
p368
sg179
Vhttps://player.vimeo.com/external/156085447.sd.mp4?s=3cd0412bc2284db473e0b0abb20591c27d773079&profile_id=164
p369
sg181
Vhttps://player.vimeo.com/external/155804037.sd.mp4?s=20d5c66ff31d825d690a3fc9e5128e519d4be3af&profile_id=164
p370
sg183
Vhttps://player.vimeo.com/external/155802352.sd.mp4?s=662ffaa45cc6d7628bfdae03791cc5b469c51130&profile_id=164
p371
sg185
Vhttps://player.vimeo.com/external/156247264.sd.mp4?s=43dbfaba717b3d9bd0808226a5ee9d315ad5f7e7&profile_id=164
p372
ss.