(dp0
VJULIO 04
p1
V155802348
p2
sVSABRINA 11
p3
V155803213
p4
sVBERGMAN 10
p5
V155808314
p6
sVSABRINA 10
p7
V155803212
p8
sVDRAO 09
p9
V156247263
p10
sVDRAO 08
p11
V156247265
p12
sVDRAO 05
p13
V156247260
p14
sVDRAO 04
p15
V156247257
p16
sVDRAO 07
p17
V156247262
p18
sVDRAO 06
p19
V156247261
p20
sVDRAO 01
p21
V156247255
p22
sVJULIO 11
p23
V155802393
p24
sVDRAO 03
p25
V156247258
p26
sVDRAO 02
p27
V156247256
p28
sVSABRINA 04
p29
V155803155
p30
sVSABRINA 05
p31
V155803156
p32
sVSABRINA 06
p33
V155803173
p34
sVSABRINA 07
p35
V155803181
p36
sVSABRINA 01
p37
V155803145
p38
sVSABRINA 02
p39
V155803147
p40
sVSABRINA 03
p41
V155803150
p42
sVSABRINA 08
p43
V155803200
p44
sVSABRINA 09
p45
V155803211
p46
sVJULIO 10
p47
V155802382
p48
sVJULIO 12
p49
V155802402
p50
sVJULIO 13
p51
V155802397
p52
sVFECHAMENTO
p53
V158698500
p54
sVJULIO 09
p55
V155802424
p56
sVJULIO 08
p57
V155802386
p58
sVDRAO 12
p59
V156247267
p60
sVCAZE 10
p61
V155804036
p62
sVJULIO 05
p63
V155802350
p64
sVDRAO 11
p65
V156247266
p66
sVJULIO 03
p67
V155802345
p68
sVJULIO 02
p69
V155802344
p70
sVJULIO 01
p71
V155802343
p72
sVCAZE 06
p73
V155804032
p74
sVCAZE 07
p75
V155804033
p76
sVCAZE 04
p77
V155804029
p78
sVCAZE 05
p79
V155804031
p80
sVCAZE 02
p81
V155804024
p82
sVCAZE 03
p83
V155804025
p84
sVCAZE 01
p85
V155804023
p86
sVCAZE 13 - ENCERRAMENTO
p87
V155805719
p88
sVDRAO CAMADUCAIA
p89
V158700024
p90
sVCAZE 08
p91
V155804042
p92
sVDIGA 12
p93
V155801683
p94
sVDIGA 14
p95
V159642594
p96
sVDIGA 13
p97
V155801702
p98
sVCAZE 12
p99
V155804035
p100
sVDIGA 11
p101
V155801725
p102
sVDIGA 10
p103
V155801676
p104
sVCAZE 09
p105
V155804043
p106
sVDIGA 04
p107
V155801652
p108
sVDIGA 05
p109
V155801653
p110
sVDIGA 06
p111
V155801656
p112
sVDIGA 07
p113
V155801658
p114
sVDIGA 01
p115
V155801649
p116
sVDIGA 02
p117
V155801650
p118
sVDIGA 03
p119
V155801651
p120
sVDIGA 08
p121
V155801662
p122
sVDIGA 09
p123
V155801674
p124
sVDANIEL 11
p125
V156085464
p126
sVDANIEL 10
p127
V156085463
p128
sVBERGMAN 04
p129
V155807039
p130
sVBERGMAN 05
p131
V155807244
p132
sVBERGMAN 06
p133
V155808301
p134
sVBERGMAN 07
p135
V155808305
p136
sVBERGMAN 01
p137
V155806193
p138
sVBERGMAN 02
p139
V155806727
p140
sVBERGMAN 03
p141
V155806801
p142
sVBERGMAN 08
p143
V155808307
p144
sVBERGMAN 09
p145
V155808308
p146
sVCAZE 13 - ABERTURA
p147
V155804778
p148
sVJULIO 07
p149
V155802356
p150
sVCAZE 13 - DEPOIMENTO 1
p151
V155804780
p152
sVCAZE 13 - DEPOIMENTO 2
p153
V155804781
p154
sVCAZE 13 - DEPOIMENTO 3
p155
V155804785
p156
sVCAZE 13 - DEPOIMENTO 4
p157
V155805717
p158
sVCAZE 13 - DEPOIMENTO 5
p159
V155805718
p160
sVDANIEL 08
p161
V156085456
p162
sVDANIEL 09
p163
V156085459
p164
sVDANIEL 06
p165
V156085455
p166
sVDANIEL 07
p167
V156085453
p168
sVDANIEL 04
p169
V156085451
p170
sVDANIEL 05
p171
V156085452
p172
sVDANIEL 02
p173
V156085448
p174
sVDANIEL 03
p175
V156085449
p176
sVDANIEL 01
p177
V156085447
p178
sVCAZE 11
p179
V155804037
p180
sVJULIO 06
p181
V155802352
p182
sVDRAO 10
p183
V156247264
p184
s.