(dp0
VCAZE 12
p1
(dp2
VJULIO 04
p3
I5
sVJULIO 05
p4
I3
sVJULIO 10
p5
I4
sVCAZE 01
p6
I4
sVDANIEL 09
p7
I3
sVDIGA 09
p8
I4
sVDIGA 10
p9
I2
sVDRAO 03
p10
I4
sVDRAO 02
p11
I5
sVDANIEL 11
p12
I5
sVDANIEL 10
p13
I3
sVBERGMAN 03
p14
I1
sVBERGMAN 04
p15
I1
sVBERGMAN 05
p16
I3
sVBERGMAN 06
p17
I2
sVBERGMAN 07
p18
I1
sVDIGA 13
p19
I1
sVDIGA 12
p20
I1
sVJULIO 09
p21
I2
sVJULIO 08
p22
I4
sVCAZE 11
p23
I2
sVCAZE 10
p24
I3
sVSABRINA 11
p25
I3
sVDRAO 11
p26
I3
sVJULIO 03
p27
I3
sVJULIO 02
p28
I4
sVJULIO 01
p29
I3
sVBERGMAN 01
p30
I1
sVJULIO 06
p31
I2
sVDIGA 08
p32
I6
sVDANIEL 01
p33
I2
sVDRAO 12
p34
I4
sVBERGMAN 02
p35
I2
sVSABRINA 10
p36
I2
sVJULIO 07
p37
I3
sVDANIEL 05
p38
I2
sVCAZE 06
p39
I1
sVCAZE 07
p40
I1
sVCAZE 04
p41
I3
sVCAZE 05
p42
I6
sVCAZE 02
p43
I2
sVCAZE 03
p44
I4
sVDANIEL 08
p45
I4
sVDRAO 10
p46
I2
sVDANIEL 06
p47
I3
sVDANIEL 07
p48
I1
sVDANIEL 04
p49
I2
sVBERGMAN 10
p50
I3
sVDANIEL 02
p51
I3
sVDANIEL 03
p52
I5
sVCAZE 08
p53
I3
sVCAZE 09
p54
I4
sVDIGA 04
p55
I4
sVDIGA 05
p56
I1
sVDIGA 06
p57
I3
sVDIGA 07
p58
I2
sVDRAO 09
p59
I5
sVDRAO 08
p60
I6
sVDIGA 02
p61
I2
sVDRAO 05
p62
I4
sVDRAO 04
p63
I2
sVDRAO 07
p64
I5
sVDRAO 06
p65
I2
sVDRAO 01
p66
I5
sVJULIO 11
p67
I4
sVJULIO 12
p68
I2
sVJULIO 13
p69
I5
sVSABRINA 04
p70
I1
sVSABRINA 05
p71
I1
sVSABRINA 06
p72
I2
sVSABRINA 07
p73
I1
sVDIGA 11
p74
I1
sVSABRINA 02
p75
I1
sVSABRINA 03
p76
I1
sVBERGMAN 09
p77
I3
sVSABRINA 08
p78
I4
sVSABRINA 09
p79
I1
ssg4
(dp80
g3
I1
sg5
I2
sg7
I2
sg8
I1
sg10
I4
sg11
I2
sg12
I1
sg13
I2
sg15
I1
sg16
I1
sg19
I1
sg1
I3
sg35
I2
sg22
I1
sg23
I1
sg24
I1
sg25
I2
sg26
I2
sg28
I1
sg29
I1
sg32
I3
sg33
I1
sg36
I1
sg37
I1
sg40
I3
sg41
I1
sg42
I4
sg44
I2
sg45
I2
sg6
I2
sg47
I2
sg48
I1
sg49
I1
sg38
I2
sg51
I1
sg52
I3
sg53
I2
sg54
I4
sg55
I2
sg56
I1
sg57
I2
sg59
I2
sg60
I2
sg62
I1
sg63
I1
sg64
I2
sg14
I1
sg66
I1
sg67
I2
sg68
I1
sg69
I1
sg70
I1
sg34
I2
sg72
I1
sg73
I1
sg31
I2
sg77
I1
sg78
I3
sg46
I2
ssg36
(dp81
g26
I6
sg4
I1
sg66
I2
sg7
I10
sVBERGMAN 08
p82
I8
sg8
I3
sg10
I6
sg11
I7
sg12
I5
sg13
I4
sg15
I5
sg16
I3
sg17
I6
sVDIGA 03
p83
I8
sg19
I7
sg1
I2
sg21
I3
sg9
I4
sg23
I3
sg24
I9
sg25
I6
sg3
I5
sg27
I5
sg28
I3
sg29
I3
sg30
I6
sg31
I4
sg32
I7
sg33
I3
sg34
I1
sg35
I7
sg14
I5
sg20
I3
sg37
I1
sg18
I4
sg38
I8
sg39
I2
sg40
I9
sg41
I1
sg42
I8
sg43
I8
sg44
I3
sg45
I3
sg46
I4
sg47
I7
sg48
I5
sg50
I4
sg51
I8
sg52
I1
sg53
I8
sg54
I9
sg55
I3
sg56
I6
sg57
I3
sg58
I2
sg74
I7
sVDIGA 01
p84
I2
sg62
I1
sg63
I4
sg65
I4
sg5
I6
sg67
I1
sg68
I2
sg69
I1
sg70
I10
sg71
I9
sg72
I8
sg73
I9
sg75
I8
sg76
I7
sg77
I5
sg78
I7
sg79
I6
ssg59
(dp85
g26
I5
sg4
I2
sg5
I4
sg7
I2
sg8
I3
sg9
I1
sg10
I5
sg11
I7
sg12
I4
sg15
I3
sg16
I5
sg17
I4
sg18
I1
sg19
I1
sg1
I5
sg21
I3
sg22
I5
sg23
I3
sg24
I2
sg46
I4
sg3
I6
sg27
I3
sg28
I4
sg29
I5
sg32
I7
sg33
I1
sg35
I2
sg14
I2
sg37
I3
sg39
I1
sg40
I4
sg41
I2
sg42
I8
sg43
I1
sg44
I3
sg45
I1
sg6
I3
sg47
I1
sg49
I1
sg50
I2
sg51
I1
sg52
I4
sg53
I4
sg54
I2
sg55
I4
sg56
I1
sg57
I3
sg58
I2
sg60
I9
sg61
I2
sg62
I6
sg63
I4
sg64
I11
sg65
I3
sg66
I6
sg67
I6
sg68
I4
sg69
I5
sg70
I2
sg34
I7
sg30
I2
sg31
I2
sg77
I4
sg78
I2
sg25
I1
ssg60
(dp86
g26
I4
sg4
I2
sg5
I4
sg7
I2
sg8
I3
sg9
I1
sg10
I5
sg11
I6
sg12
I4
sg15
I1
sg16
I3
sg17
I2
sg19
I1
sg1
I6
sg21
I2
sg22
I5
sg23
I3
sg24
I2
sg25
I1
sg3
I5
sg27
I3
sg28
I4
sg29
I4
sg32
I6
sg33
I2
sg14
I1
sg37
I3
sg39
I1
sg40
I4
sg41
I2
sg42
I6
sg43
I1
sg44
I4
sg45
I2
sg6
I4
sg47
I2
sg49
I2
sg50
I2
sg51
I2
sg52
I3
sg53
I3
sg54
I2
sg55
I4
sg56
I1
sg57
I3
sg58
I2
sg59
I9
sg35
I2
sg61
I2
sg62
I6
sg63
I4
sg64
I9
sg65
I2
sg66
I6
sg67
I5
sg68
I2
sg69
I5
sg70
I1
sg34
I7
sg30
I1
sg31
I2
sg77
I4
sg78
I2
sg46
I3
ssg62
(dp87
g3
I4
sg4
I1
sg66
I4
sg7
I3
sg82
I1
sg8
I2
sg10
I5
sg11
I8
sg12
I4
sg14
I3
sg15
I2
sg16
I3
sg17
I2
sg38
I1
sg1
I4
sg21
I2
sg22
I5
sg23
I2
sg24
I2
sg25
I2
sg26
I4
sg27
I3
sg28
I4
sg29
I6
sg32
I5
sg33
I3
sg34
I4
sg35
I1
sg36
I1
sg37
I1
sg39
I3
sg40
I2
sg30
I3
sg42
I9
sg43
I3
sg44
I4
sg45
I2
sg6
I3
sg47
I2
sg48
I1
sg49
I2
sg50
I3
sg51
I3
sg52
I2
sg53
I3
sg54
I1
sg55
I2
sg57
I3
sg58
I1
sg59
I6
sg60
I6
sg61
I1
sg83
I1
sg63
I7
sg64
I5
sg65
I3
sg5
I5
sg67
I6
sg68
I4
sg69
I3
sg70
I2
sg71
I1
sg72
I1
sg73
I1
sg75
I1
sg31
I2
sg77
I6
sg78
I1
sg46
I3
ssg63
(dp88
g3
I5
sg4
I1
sg66
I5
sg6
I2
sg7
I6
sg8
I4
sg10
I10
sg11
I12
sg12
I5
sg14
I5
sg15
I5
sg16
I1
sg17
I3
sg83
I3
sg19
I5
sg1
I2
sg74
I2
sg22
I2
sg23
I2
sg24
I5
sg25
I2
sg26
I8
sg27
I5
sg28
I2
sg29
I3
sg30
I5
sg32
I3
sg33
I3
sg34
I5
sg35
I3
sg36
I4
sg37
I1
sg38
I3
sg39
I3
sg40
I5
sg41
I2
sg42
I11
sg43
I5
sg44
I2
sg45
I1
sg46
I4
sg47
I3
sg48
I1
sg49
I1
sg82
I4
sg51
I2
sg52
I1
sg53
I5
sg54
I3
sg55
I1
sg56
I2
sg57
I3
sg58
I3
sg59
I4
sg60
I4
sg61
I2
sg84
I1
sg62
I7
sg31
I2
sg64
I4
sg65
I5
sg5
I1
sg67
I2
sg68
I3
sg69
I1
sg70
I5
sg71
I4
sg72
I3
sg73
I4
sg75
I2
sg76
I1
sg77
I3
sg78
I5
sg79
I1
ssg64
(dp89
g26
I4
sg4
I2
sg5
I3
sg7
I1
sg8
I3
sg9
I1
sg10
I5
sg11
I6
sg12
I4
sg15
I1
sg16
I3
sg17
I3
sg19
I1
sg1
I5
sg21
I2
sg22
I4
sg23
I3
sg24
I2
sg25
I1
sg3
I5
sg27
I3
sg28
I3
sg29
I3
sg32
I6
sg33
I1
sg35
I2
sg14
I2
sg37
I4
sg39
I1
sg40
I4
sg41
I2
sg42
I6
sg43
I1
sg44
I3
sg45
I1
sg6
I3
sg47
I1
sg49
I1
sg50
I2
sg51
I1
sg52
I3
sg53
I3
sg54
I2
sg55
I4
sg56
I1
sg57
I3
sg58
I2
sg59
I11
sg60
I9
sg61
I2
sg62
I5
sg63
I4
sg65
I2
sg66
I6
sg67
I5
sg68
I2
sg69
I5
sg70
I1
sg34
I6
sg30
I1
sg31
I2
sg77
I4
sg78
I2
sg46
I3
ssg65
(dp90
g3
I8
sg5
I4
sg6
I1
sg82
I4
sg8
I2
sg10
I3
sg11
I5
sg12
I4
sg14
I5
sg15
I8
sg16
I4
sg17
I4
sg83
I4
sg19
I2
sg1
I2
sg21
I3
sg22
I3
sg23
I4
sg24
I7
sg25
I2
sg26
I5
sg27
I6
sg28
I4
sg29
I2
sg30
I9
sg31
I2
sg32
I6
sg33
I5
sg34
I2
sg35
I5
sg36
I4
sg20
I1
sg37
I1
sg18
I2
sg38
I1
sg39
I4
sg40
I3
sg41
I1
sg42
I9
sg43
I7
sg44
I2
sg7
I5
sg46
I5
sg47
I2
sg48
I2
sg50
I2
sg51
I2
sg53
I9
sg54
I3
sg55
I1
sg56
I2
sg57
I2
sg58
I3
sg59
I3
sg60
I2
sg61
I2
sg84
I2
sg62
I3
sg63
I5
sg64
I2
sg9
I2
sg66
I6
sg67
I2
sg68
I4
sg69
I1
sg70
I3
sg71
I3
sg72
I3
sg73
I3
sg74
I3
sg75
I3
sg76
I4
sg77
I6
sg78
I6
sg79
I2
ssg5
(dp91
g3
I5
sg4
I2
sg32
I9
sg6
I3
sg82
I1
sg8
I3
sg9
I4
sg10
I3
sg11
I4
sg12
I4
sg13
I2
sg14
I2
sg15
I3
sg16
I5
sg17
I2
sg83
I6
sg19
I3
sg1
I4
sg21
I4
sg22
I5
sg23
I3
sg24
I4
sg25
I3
sg26
I3
sg27
I3
sg28
I8
sg29
I4
sg30
I3
sg31
I2
sg33
I4
sg34
I3
sg35
I5
sg36
I6
sg7
I5
sg20
I2
sg37
I3
sg18
I1
sg38
I5
sg39
I2
sg40
I5
sg41
I1
sg42
I6
sg43
I3
sg44
I4
sg45
I4
sg46
I2
sg47
I4
sg48
I3
sg49
I2
sg50
I3
sg51
I7
sg52
I2
sg53
I6
sg54
I3
sg55
I4
sg56
I3
sg57
I6
sg58
I3
sg59
I4
sg60
I4
sg61
I2
sg84
I1
sg62
I5
sg63
I1
sg64
I3
sg65
I4
sg66
I2
sg67
I5
sg68
I4
sg69
I2
sg70
I4
sg71
I3
sg72
I3
sg73
I3
sg74
I5
sg75
I4
sg76
I4
sg77
I6
sg78
I6
sg79
I4
ssg67
(dp92
g3
I4
sg4
I2
sg5
I5
sg6
I3
sg7
I2
sg77
I2
sg9
I2
sg10
I3
sg11
I5
sg12
I4
sg13
I1
sg15
I2
sg16
I4
sg17
I1
sg38
I2
sg19
I2
sg1
I4
sg21
I3
sg22
I5
sg23
I1
sg24
I2
sg25
I1
sg26
I4
sg27
I3
sg28
I5
sg29
I4
sg30
I1
sg32
I8
sg33
I2
sg34
I3
sg35
I1
sg36
I1
sg20
I1
sg37
I5
sg39
I1
sg40
I3
sg41
I2
sg42
I6
sg44
I4
sg45
I3
sg46
I2
sg47
I3
sg48
I2
sg49
I2
sg50
I3
sg51
I3
sg52
I2
sg53
I4
sg54
I3
sg55
I4
sg56
I1
sg57
I4
sg58
I2
sg59
I6
sg60
I5
sg61
I4
sg83
I1
sg62
I6
sg63
I2
sg64
I5
sg65
I2
sg66
I7
sg8
I3
sg68
I3
sg69
I7
sg70
I1
sg71
I2
sg72
I1
sg74
I2
sg75
I1
sg31
I3
sg78
I5
sg79
I2
ssg10
(dp93
g3
I5
sg4
I4
sg5
I3
sg6
I4
sg82
I4
sg8
I5
sg9
I1
sg11
I13
sg12
I4
sg13
I2
sg14
I6
sg15
I6
sg16
I4
sg17
I4
sg83
I2
sg19
I7
sg1
I4
sg74
I2
sg22
I3
sg23
I5
sg24
I8
sg25
I3
sg26
I6
sg27
I5
sg28
I1
sg29
I3
sg30
I6
sg31
I3
sg32
I11
sg33
I3
sg34
I5
sg35
I8
sg36
I6
sg7
I6
sg20
I1
sg18
I1
sg38
I5
sg39
I3
sg40
I7
sg41
I4
sg42
I17
sg43
I7
sg44
I2
sg45
I2
sg46
I5
sg47
I4
sg48
I3
sg49
I2
sg50
I1
sg51
I3
sg52
I4
sg53
I10
sg54
I9
sg55
I3
sg56
I5
sg57
I3
sg58
I1
sg59
I5
sg60
I5
sg61
I1
sg84
I1
sg62
I5
sg63
I10
sg64
I5
sg65
I3
sg66
I7
sg67
I3
sg68
I3
sg69
I3
sg70
I8
sg71
I7
sg72
I5
sg73
I4
sg75
I4
sg76
I3
sg77
I3
sg78
I5
sg79
I2
ssg11
(dp94
g3
I7
sg4
I2
sg5
I4
sg6
I4
sg82
I4
sg8
I5
sg9
I1
sg10
I13
sg34
I6
sg12
I5
sg13
I2
sg14
I4
sg15
I6
sg16
I4
sg17
I3
sg83
I4
sg19
I7
sg1
I5
sg21
I1
sg22
I4
sg23
I6
sg24
I8
sg25
I3
sg26
I6
sg27
I7
sg28
I2
sg29
I4
sg30
I6
sg31
I3
sg32
I9
sg33
I2
sg35
I4
sg36
I7
sg7
I8
sg20
I2
sg37
I1
sg18
I1
sg38
I6
sg39
I4
sg40
I9
sg41
I3
sg42
I15
sg43
I8
sg44
I4
sg45
I3
sg46
I5
sg47
I5
sg48
I2
sg49
I1
sg50
I1
sg51
I5
sg52
I3
sg53
I9
sg54
I6
sg55
I2
sg56
I4
sg57
I3
sg58
I1
sg59
I7
sg60
I6
sg61
I1
sg84
I1
sg62
I8
sg63
I12
sg64
I6
sg65
I5
sg66
I8
sg67
I5
sg68
I4
sg69
I3
sg70
I6
sg71
I6
sg72
I4
sg73
I5
sg74
I4
sg75
I4
sg76
I3
sg77
I3
sg78
I5
sg79
I3
ssg70
(dp95
g3
I4
sg4
I1
sg66
I3
sg6
I1
sg82
I8
sg8
I3
sg9
I4
sg10
I8
sg34
I1
sg12
I2
sg13
I4
sg14
I7
sg15
I8
sg16
I6
sg17
I8
sg83
I5
sg19
I5
sg1
I1
sg21
I3
sg22
I1
sg23
I5
sg24
I3
sg25
I4
sg26
I10
sg27
I5
sg28
I2
sg29
I5
sg30
I7
sg31
I3
sg32
I8
sg33
I4
sg35
I8
sg36
I10
sg7
I7
sg20
I2
sg18
I4
sg38
I7
sg39
I4
sg40
I6
sg41
I3
sg42
I13
sg43
I6
sg44
I3
sg45
I2
sg46
I6
sg47
I5
sg48
I5
sg50
I4
sg51
I4
sg52
I2
sg53
I8
sg54
I7
sg55
I1
sg56
I5
sg57
I3
sg58
I1
sg59
I2
sg60
I1
sg84
I2
sg62
I2
sg63
I5
sg64
I1
sg65
I3
sg5
I4
sg67
I1
sg68
I1
sg11
I6
sg74
I5
sg71
I9
sg72
I5
sg73
I6
sg75
I8
sg76
I6
sg77
I4
sg78
I6
sg79
I3
ssg71
(dp96
g3
I3
sg5
I3
sg6
I1
sg82
I4
sg8
I2
sg10
I7
sg11
I6
sg12
I4
sg13
I2
sg14
I4
sg15
I3
sg16
I2
sg17
I4
sg18
I2
sg19
I6
sg1
I1
sg74
I6
sg9
I6
sg23
I4
sg24
I7
sg25
I4
sg26
I4
sg27
I5
sg28
I2
sg29
I1
sg30
I4
sg31
I2
sg32
I8
sg33
I3
sg35
I6
sg36
I9
sg7
I9
sg37
I1
sg38
I5
sg39
I3
sg40
I9
sg41
I3
sg42
I7
sg43
I7
sg20
I6
sg45
I2
sg46
I3
sg47
I4
sg48
I4
sg50
I2
sg51
I6
sg52
I1
sg53
I8
sg54
I7
sg55
I1
sg56
I5
sg57
I2
sg84
I1
sg61
I1
sg83
I4
sg62
I1
sg63
I4
sg65
I3
sg66
I4
sg67
I2
sg68
I2
sg69
I1
sg70
I9
sg34
I1
sg72
I8
sg73
I7
sg75
I10
sg76
I6
sg77
I4
sg78
I6
sg79
I4
ssg72
(dp97
g3
I2
sg4
I1
sg66
I3
sg7
I6
sg82
I3
sg8
I1
sg10
I5
sg34
I1
sg12
I5
sg13
I2
sg14
I3
sg15
I3
sg16
I3
sg17
I4
sg18
I2
sg19
I3
sg1
I2
sg74
I3
sg9
I3
sg23
I3
sg24
I5
sg25
I5
sg26
I2
sg27
I3
sg28
I2
sg29
I1
sg30
I5
sg31
I1
sg32
I5
sg33
I5
sg36
I8
sg37
I1
sg38
I6
sg39
I2
sg40
I7
sg41
I2
sg42
I5
sg43
I6
sg20
I3
sg45
I3
sg46
I4
sg47
I4
sg48
I4
sg50
I1
sg51
I5
sg52
I2
sg53
I6
sg54
I5
sg55
I1
sg56
I3
sg58
I1
sg35
I4
sg83
I2
sg62
I1
sg63
I3
sg65
I3
sg5
I3
sg67
I1
sg68
I2
sg11
I4
sg70
I5
sg71
I8
sg73
I5
sg75
I7
sg76
I3
sg77
I4
sg78
I5
sg79
I4
ssg73
(dp98
g3
I3
sg4
I1
sg66
I3
sg82
I6
sg77
I4
sg10
I4
sg11
I5
sg12
I4
sg13
I4
sg14
I3
sg15
I3
sg16
I2
sg17
I5
sg83
I5
sg19
I4
sg1
I1
sg21
I2
sg9
I1
sg34
I1
sg24
I6
sg25
I5
sg26
I4
sg27
I4
sg28
I1
sg29
I2
sg31
I1
sg32
I3
sg33
I3
sg35
I6
sg36
I9
sg37
I2
sg18
I3
sg38
I5
sg39
I1
sg40
I8
sg41
I1
sg42
I5
sg43
I4
sg20
I1
sg45
I2
sg7
I6
sg47
I3
sg48
I3
sg50
I2
sg51
I6
sg52
I2
sg53
I4
sg54
I4
sg55
I2
sg56
I2
sg57
I3
sg58
I1
sg74
I5
sg84
I2
sg62
I1
sg63
I4
sg65
I3
sg5
I3
sg8
I1
sg68
I2
sg79
I2
sg70
I6
sg71
I7
sg72
I5
sg30
I3
sg75
I5
sg76
I4
sg78
I4
sg46
I3
ssVSABRINA 01
p99
(dp100
sg75
(dp101
g3
I3
sg66
I3
sg7
I7
sg82
I3
sg8
I1
sg10
I4
sg12
I1
sg13
I2
sg14
I2
sg15
I4
sg16
I2
sg17
I3
sg83
I5
sg19
I3
sg1
I1
sg21
I1
sg9
I6
sg23
I4
sg24
I4
sg25
I4
sg26
I1
sg27
I4
sg28
I3
sg29
I1
sg30
I5
sg31
I1
sg32
I8
sg33
I5
sg35
I6
sg36
I8
sg18
I3
sg38
I5
sg39
I3
sg40
I8
sg41
I3
sg42
I5
sg43
I5
sg20
I5
sg45
I2
sg46
I2
sg47
I2
sg48
I5
sg50
I3
sg51
I8
sg52
I1
sg53
I5
sg54
I6
sg55
I2
sg56
I4
sg57
I1
sg58
I2
sg74
I6
sg84
I1
sg62
I1
sg63
I2
sg65
I3
sg5
I4
sg67
I1
sg68
I1
sg11
I4
sg70
I8
sg71
I10
sg72
I7
sg73
I5
sg76
I7
sg77
I5
sg78
I5
sg79
I4
ssg76
(dp102
g3
I3
sg66
I1
sg82
I3
sg77
I4
sg10
I3
sg11
I3
sg12
I1
sg13
I2
sg14
I1
sg15
I4
sg16
I2
sg17
I2
sg83
I6
sg19
I4
sg1
I1
sg21
I1
sg9
I4
sg23
I4
sg24
I5
sg25
I3
sg26
I1
sg27
I2
sg28
I2
sg30
I4
sg32
I5
sg33
I3
sg35
I4
sg36
I7
sg37
I1
sg18
I3
sg38
I3
sg39
I2
sg40
I4
sg41
I2
sg42
I4
sg43
I5
sg20
I2
sg45
I1
sg7
I4
sg47
I2
sg48
I3
sg50
I3
sg51
I5
sg52
I1
sg53
I5
sg54
I5
sg55
I2
sg56
I4
sg57
I3
sg58
I1
sg74
I6
sg84
I2
sg63
I1
sg65
I4
sg5
I4
sg8
I2
sg68
I1
sg79
I3
sg70
I6
sg71
I6
sg72
I3
sg73
I4
sg75
I7
sg31
I1
sg78
I5
sg46
I1
ssg78
(dp103
g3
I6
sg4
I3
sg5
I6
sg6
I1
sg82
I5
sg8
I8
sg9
I6
sg10
I5
sg11
I5
sg12
I6
sg13
I5
sg14
I3
sg15
I6
sg16
I5
sg17
I4
sg83
I7
sg19
I5
sg1
I4
sg21
I3
sg22
I2
sg23
I4
sg24
I4
sg25
I4
sg26
I7
sg27
I7
sg28
I6
sg29
I1
sg30
I4
sg31
I4
sg32
I6
sg33
I4
sg34
I2
sg35
I6
sg36
I7
sg20
I4
sg37
I4
sg18
I3
sg38
I8
sg39
I1
sg40
I6
sg41
I3
sg42
I6
sg43
I6
sg44
I2
sg45
I5
sg46
I3
sg47
I5
sg48
I6
sg49
I2
sg50
I4
sg51
I5
sg52
I3
sg53
I8
sg54
I7
sg55
I3
sg56
I4
sg57
I6
sg58
I4
sg59
I2
sg60
I2
sg61
I3
sg84
I2
sg62
I1
sg63
I5
sg64
I2
sg65
I6
sg66
I4
sg67
I5
sg68
I2
sg69
I2
sg70
I6
sg71
I6
sg72
I5
sg73
I4
sg74
I6
sg75
I5
sg76
I5
sg77
I4
sg7
I7
sg79
I6
ssg79
(dp104
g26
I1
sg32
I4
sg82
I1
sg8
I4
sg12
I2
sg13
I4
sg14
I1
sg15
I1
sg16
I1
sg17
I1
sg18
I1
sg19
I2
sg3
I1
sg74
I5
sg9
I3
sg23
I2
sg24
I3
sg25
I2
sg1
I1
sg27
I2
sg28
I2
sg30
I1
sg31
I2
sg33
I2
sg35
I3
sg36
I6
sg38
I5
sg40
I3
sg41
I1
sg42
I2
sg43
I3
sg20
I3
sg45
I5
sg7
I5
sg47
I5
sg48
I3
sg49
I3
sg50
I1
sg51
I7
sg52
I2
sg53
I3
sg54
I2
sg55
I2
sg56
I3
sg57
I2
sg58
I1
sg84
I1
sg61
I1
sg83
I4
sg63
I1
sg65
I2
sg5
I4
sg67
I2
sg10
I2
sg11
I3
sg70
I3
sg71
I4
sg72
I4
sg73
I2
sg75
I4
sg76
I3
sg77
I1
sg78
I6
sg46
I2
ssg66
(dp105
g3
I7
sg4
I1
sg32
I8
sg7
I3
sg82
I3
sg8
I3
sg9
I1
sg10
I7
sg11
I8
sg12
I4
sg14
I3
sg15
I4
sg16
I4
sg17
I4
sg18
I1
sg19
I3
sg1
I5
sg21
I2
sg22
I4
sg23
I4
sg24
I7
sg25
I1
sg26
I5
sg27
I7
sg28
I2
sg29
I3
sg30
I5
sg31
I2
sg33
I3
sg34
I4
sg35
I4
sg36
I2
sg37
I5
sg38
I1
sg39
I5
sg40
I5
sg41
I5
sg42
I9
sg43
I5
sg44
I5
sg6
I4
sg48
I2
sg50
I3
sg51
I2
sg52
I1
sg53
I8
sg54
I5
sg55
I3
sg56
I1
sg57
I2
sg58
I2
sg59
I6
sg60
I6
sg61
I3
sg83
I1
sg62
I4
sg63
I5
sg64
I6
sg65
I6
sg5
I2
sg67
I7
sg68
I3
sg69
I7
sg70
I3
sg71
I4
sg72
I3
sg73
I3
sg74
I1
sg75
I3
sg76
I1
sg77
I4
sg78
I4
sg46
I4
ssg68
(dp106
g3
I2
sg4
I1
sg66
I3
sg7
I7
sg82
I3
sg8
I1
sg34
I4
sg12
I5
sg14
I4
sg15
I6
sg16
I4
sg17
I4
sg18
I3
sg19
I1
sg1
I2
sg21
I1
sg22
I4
sg23
I1
sg24
I3
sg25
I2
sg26
I4
sg27
I2
sg28
I3
sg29
I4
sg30
I6
sg32
I3
sg33
I3
sg35
I3
sg36
I2
sg39
I3
sg40
I2
sg41
I1
sg42
I8
sg43
I4
sg44
I3
sg45
I2
sg6
I2
sg47
I3
sg48
I2
sg49
I2
sg50
I2
sg51
I3
sg52
I4
sg53
I7
sg54
I3
sg55
I1
sg57
I2
sg59
I4
sg60
I2
sg83
I2
sg62
I4
sg63
I3
sg64
I2
sg65
I4
sg5
I4
sg67
I3
sg10
I3
sg11
I4
sg70
I1
sg71
I2
sg72
I2
sg73
I2
sg75
I1
sg76
I1
sg77
I6
sg78
I2
sg46
I3
ssg69
(dp107
g3
I4
sg66
I7
sg8
I4
sg9
I1
sg34
I3
sg12
I3
sg13
I1
sg16
I2
sg17
I1
sg19
I3
sg1
I5
sg21
I2
sg22
I2
sg23
I1
sg24
I6
sg46
I1
sg26
I2
sg27
I2
sg28
I2
sg29
I2
sg32
I5
sg35
I1
sg36
I1
sg37
I6
sg39
I1
sg40
I2
sg41
I3
sg42
I4
sg44
I3
sg6
I2
sg49
I1
sg50
I2
sg52
I2
sg53
I3
sg54
I4
sg55
I4
sg56
I2
sg57
I3
sg58
I3
sg59
I5
sg60
I5
sg61
I3
sg62
I3
sg63
I1
sg64
I5
sg65
I1
sg5
I2
sg67
I7
sg10
I3
sg11
I3
sg71
I1
sg74
I1
sg31
I3
sg77
I1
sg78
I2
sg4
I1
ssg21
(dp108
g3
I4
sg66
I2
sg82
I3
sg8
I2
sg9
I2
sg11
I1
sg12
I2
sg14
I2
sg15
I2
sg16
I4
sg17
I4
sg83
I1
sg1
I2
sg74
I1
sg22
I3
sg34
I1
sg31
I1
sg46
I1
sg26
I4
sg27
I2
sg28
I4
sg29
I4
sg30
I1
sg32
I5
sg33
I1
sg35
I2
sg36
I3
sg18
I2
sg38
I1
sg40
I1
sg41
I1
sg42
I4
sg44
I2
sg48
I1
sg50
I4
sg53
I3
sg54
I1
sg55
I2
sg57
I2
sg58
I3
sg59
I3
sg60
I2
sg61
I2
sg84
I1
sg62
I2
sg64
I2
sg65
I3
sg5
I4
sg67
I3
sg68
I1
sg69
I2
sg70
I3
sg37
I2
sg73
I2
sg75
I1
sg76
I1
sg77
I2
sg78
I3
sg25
I2
ssg22
(dp109
g26
I4
sg4
I1
sg5
I5
sg7
I2
sg8
I2
sg10
I3
sg11
I4
sg12
I4
sg15
I3
sg16
I5
sg17
I2
sg1
I4
sg21
I3
sg9
I1
sg23
I1
sg31
I1
sg25
I1
sg3
I4
sg27
I3
sg28
I5
sg29
I5
sg32
I6
sg33
I2
sg14
I1
sg37
I2
sg39
I1
sg41
I1
sg42
I5
sg43
I1
sg44
I3
sg45
I2
sg6
I2
sg47
I2
sg49
I2
sg50
I2
sg51
I2
sg52
I2
sg53
I3
sg30
I2
sg55
I3
sg57
I3
sg58
I2
sg59
I5
sg60
I5
sg61
I2
sg62
I5
sg63
I2
sg64
I4
sg65
I3
sg66
I4
sg67
I5
sg68
I4
sg69
I2
sg70
I1
sg34
I3
sg77
I4
sg78
I2
sg46
I2
ssg23
(dp110
g3
I3
sg4
I1
sg5
I3
sg6
I4
sg82
I2
sg8
I1
sg9
I2
sg10
I5
sg11
I6
sg13
I2
sg14
I4
sg15
I4
sg16
I3
sg17
I2
sg18
I2
sg19
I1
sg1
I2
sg74
I2
sg22
I1
sg34
I2
sg24
I3
sg25
I2
sg26
I2
sg27
I3
sg28
I1
sg29
I1
sg32
I5
sg33
I3
sg35
I4
sg36
I3
sg7
I4
sg20
I2
sg37
I1
sg38
I4
sg39
I5
sg40
I4
sg41
I3
sg42
I8
sg43
I6
sg44
I3
sg45
I1
sg46
I3
sg47
I2
sg48
I3
sg50
I2
sg51
I3
sg52
I1
sg53
I7
sg54
I5
sg56
I2
sg57
I1
sg59
I3
sg60
I3
sg83
I2
sg62
I2
sg63
I2
sg64
I3
sg65
I4
sg66
I4
sg67
I1
sg68
I1
sg69
I1
sg70
I5
sg71
I4
sg72
I3
sg30
I4
sg75
I4
sg76
I4
sg77
I3
sg78
I4
sg79
I2
ssg24
(dp111
g3
I4
sg4
I1
sg5
I4
sg6
I1
sg82
I5
sg8
I3
sg10
I8
sg11
I8
sg12
I5
sg13
I2
sg14
I3
sg15
I2
sg16
I1
sg17
I2
sg83
I5
sg19
I8
sg1
I3
sg74
I3
sg9
I1
sg23
I3
sg31
I2
sg25
I3
sg26
I3
sg27
I4
sg28
I1
sg29
I1
sg30
I7
sg32
I6
sg33
I4
sg34
I2
sg35
I5
sg36
I9
sg7
I7
sg37
I3
sg18
I2
sg38
I4
sg39
I4
sg40
I7
sg41
I4
sg42
I9
sg43
I8
sg20
I1
sg45
I1
sg46
I5
sg47
I3
sg48
I3
sg49
I1
sg50
I1
sg51
I5
sg52
I2
sg53
I9
sg54
I8
sg55
I3
sg56
I5
sg57
I3
sg58
I2
sg59
I2
sg60
I2
sg61
I2
sg84
I1
sg62
I2
sg63
I5
sg64
I2
sg65
I7
sg66
I7
sg67
I2
sg68
I3
sg69
I6
sg70
I3
sg71
I7
sg72
I5
sg73
I6
sg75
I4
sg76
I5
sg77
I4
sg78
I4
sg79
I3
ssg25
(dp112
g3
I2
sg4
I2
sg66
I1
sg7
I5
sg82
I4
sg8
I1
sg9
I3
sg10
I3
sg34
I1
sg12
I3
sg13
I2
sg14
I3
sg15
I2
sg16
I3
sg17
I4
sg83
I2
sg1
I3
sg21
I2
sg22
I1
sg23
I2
sg24
I3
sg46
I4
sg26
I3
sg27
I1
sg28
I3
sg29
I3
sg30
I4
sg32
I4
sg33
I4
sg35
I3
sg36
I6
sg20
I2
sg37
I1
sg18
I4
sg38
I5
sg39
I1
sg40
I4
sg41
I1
sg42
I5
sg43
I4
sg44
I1
sg45
I3
sg6
I1
sg47
I3
sg48
I4
sg49
I1
sg50
I2
sg51
I4
sg52
I3
sg53
I3
sg54
I3
sg55
I1
sg56
I1
sg57
I1
sg58
I1
sg59
I1
sg60
I1
sg84
I1
sg62
I2
sg63
I2
sg64
I1
sg65
I2
sg5
I3
sg67
I1
sg68
I2
sg11
I3
sg70
I4
sg71
I4
sg72
I5
sg73
I5
sg74
I3
sg75
I4
sg76
I3
sg77
I5
sg78
I4
sg79
I2
ssg3
(dp113
g26
I5
sg4
I1
sg5
I5
sg6
I2
sg82
I3
sg8
I4
sg9
I3
sg10
I5
sg11
I7
sg12
I3
sg13
I1
sg15
I7
sg16
I5
sg17
I4
sg83
I4
sg19
I4
sg1
I5
sg21
I4
sg22
I4
sg23
I3
sg24
I4
sg25
I2
sg36
I5
sg27
I6
sg28
I5
sg29
I3
sg30
I4
sg31
I3
sg32
I8
sg33
I2
sg34
I4
sg35
I5
sg14
I3
sg20
I1
sg37
I2
sg18
I1
sg38
I2
sg39
I2
sg40
I5
sg41
I2
sg42
I9
sg43
I5
sg44
I3
sg7
I3
sg46
I4
sg47
I1
sg48
I1
sg50
I3
sg51
I2
sg52
I1
sg53
I6
sg54
I6
sg55
I4
sg56
I4
sg57
I3
sg58
I4
sg59
I6
sg60
I5
sg61
I3
sg84
I1
sg62
I4
sg63
I5
sg64
I5
sg65
I8
sg66
I7
sg67
I4
sg68
I2
sg69
I4
sg70
I4
sg71
I3
sg72
I2
sg73
I3
sg74
I3
sg75
I3
sg76
I3
sg77
I5
sg78
I6
sg79
I1
ssg27
(dp114
g3
I6
sg5
I3
sg6
I1
sg7
I7
sg8
I5
sg9
I2
sg10
I5
sg11
I7
sg12
I5
sg14
I3
sg15
I4
sg16
I3
sg17
I3
sg83
I5
sg19
I5
sg1
I3
sg21
I2
sg22
I3
sg23
I3
sg24
I4
sg25
I1
sg26
I8
sg82
I6
sg28
I3
sg29
I3
sg30
I4
sg31
I5
sg32
I5
sg33
I3
sg34
I2
sg35
I3
sg36
I5
sg20
I3
sg37
I2
sg18
I1
sg38
I4
sg39
I5
sg40
I4
sg41
I2
sg42
I7
sg43
I7
sg44
I3
sg45
I1
sg46
I4
sg47
I3
sg48
I4
sg50
I3
sg51
I4
sg52
I1
sg53
I5
sg54
I3
sg55
I2
sg56
I4
sg57
I4
sg58
I2
sg59
I3
sg60
I3
sg61
I2
sg84
I1
sg62
I3
sg63
I5
sg64
I3
sg65
I6
sg66
I7
sg67
I3
sg68
I2
sg69
I2
sg70
I5
sg71
I5
sg72
I3
sg73
I4
sg74
I4
sg75
I4
sg76
I2
sg77
I4
sg78
I7
sg79
I2
ssg28
(dp115
g3
I5
sg4
I1
sg5
I8
sg6
I2
sg82
I1
sg8
I3
sg9
I4
sg10
I1
sg11
I2
sg12
I4
sg15
I2
sg16
I4
sg17
I2
sg83
I3
sg19
I1
sg1
I4
sg21
I4
sg22
I5
sg23
I1
sg24
I1
sg25
I3
sg26
I4
sg27
I3
sg77
I5
sg29
I4
sg30
I1
sg31
I2
sg32
I7
sg33
I4
sg34
I3
sg35
I2
sg36
I3
sg7
I4
sg20
I2
sg37
I3
sg18
I1
sg38
I2
sg40
I4
sg41
I1
sg42
I3
sg43
I1
sg44
I3
sg45
I3
sg46
I2
sg47
I3
sg48
I2
sg49
I2
sg50
I2
sg51
I4
sg52
I2
sg53
I3
sg54
I1
sg55
I3
sg56
I2
sg57
I3
sg58
I4
sg59
I4
sg60
I4
sg61
I2
sg84
I1
sg62
I4
sg63
I2
sg64
I3
sg65
I4
sg66
I2
sg67
I5
sg68
I3
sg69
I2
sg70
I2
sg71
I2
sg72
I2
sg73
I1
sg74
I3
sg75
I3
sg76
I2
sg78
I6
sg79
I2
ssg29
(dp116
g3
I3
sg4
I1
sg66
I3
sg7
I4
sg82
I3
sg8
I1
sg9
I1
sg10
I3
sg11
I4
sg12
I4
sg14
I4
sg15
I3
sg16
I4
sg17
I4
sg18
I2
sg1
I3
sg21
I4
sg22
I5
sg23
I1
sg24
I1
sg25
I3
sg26
I7
sg27
I3
sg28
I4
sg32
I5
sg33
I3
sg34
I4
sg35
I1
sg36
I3
sg37
I1
sg38
I2
sg39
I2
sg40
I1
sg41
I1
sg42
I8
sg43
I2
sg44
I3
sg45
I2
sg6
I2
sg47
I2
sg48
I1
sg49
I2
sg50
I3
sg51
I3
sg52
I3
sg53
I2
sg30
I3
sg55
I2
sg57
I2
sg58
I1
sg59
I5
sg60
I4
sg61
I1
sg62
I6
sg63
I3
sg64
I3
sg65
I2
sg5
I4
sg67
I4
sg68
I4
sg69
I2
sg70
I5
sg71
I1
sg72
I1
sg73
I2
sg75
I1
sg31
I1
sg77
I4
sg78
I1
sg46
I5
ssg39
(dp117
g3
I2
sg66
I5
sg7
I4
sg82
I4
sg8
I1
sg10
I3
sg11
I4
sg12
I1
sg14
I4
sg15
I3
sg16
I1
sg17
I1
sg18
I1
sg19
I2
sg1
I1
sg35
I2
sg22
I1
sg23
I5
sg24
I4
sg25
I1
sg26
I5
sg27
I5
sg77
I4
sg29
I2
sg30
I6
sg32
I4
sg33
I4
sg36
I2
sg37
I1
sg38
I3
sg40
I2
sg41
I3
sg42
I8
sg43
I6
sg44
I3
sg6
I1
sg47
I1
sg48
I3
sg50
I2
sg51
I2
sg53
I4
sg54
I3
sg56
I1
sg57
I1
sg59
I1
sg60
I1
sg61
I1
sg83
I2
sg62
I3
sg63
I3
sg64
I1
sg65
I4
sg5
I2
sg67
I1
sg68
I3
sg69
I1
sg70
I4
sg71
I3
sg72
I2
sg73
I1
sg75
I3
sg76
I2
sg78
I1
sg46
I4
ssg40
(dp118
g3
I5
sg4
I3
sg5
I5
sg6
I1
sg82
I4
sg8
I4
sg10
I7
sg11
I9
sg12
I4
sg13
I3
sg14
I2
sg15
I3
sg16
I2
sg17
I4
sg83
I5
sg19
I5
sg1
I1
sg21
I1
sg9
I3
sg23
I4
sg24
I7
sg25
I4
sg26
I4
sg27
I4
sg28
I4
sg29
I1
sg30
I4
sg31
I2
sg32
I9
sg33
I4
sg34
I5
sg35
I8
sg36
I9
sg7
I7
sg20
I3
sg37
I2
sg18
I2
sg38
I5
sg39
I2
sg41
I2
sg42
I9
sg43
I5
sg44
I1
sg45
I2
sg46
I4
sg47
I3
sg48
I4
sg49
I2
sg50
I1
sg51
I7
sg52
I1
sg53
I7
sg54
I8
sg55
I3
sg56
I5
sg57
I1
sg58
I2
sg59
I4
sg60
I4
sg61
I1
sg84
I1
sg62
I2
sg63
I5
sg64
I4
sg65
I3
sg66
I5
sg67
I3
sg68
I2
sg69
I2
sg70
I6
sg71
I9
sg72
I7
sg73
I8
sg74
I6
sg75
I8
sg76
I4
sg77
I5
sg78
I6
sg79
I3
ssg41
(dp119
g3
I2
sg4
I1
sg5
I1
sg7
I3
sg82
I2
sg8
I3
sg9
I2
sg10
I4
sg11
I3
sg12
I1
sg13
I1
sg14
I1
sg15
I2
sg16
I2
sg17
I2
sg18
I2
sg19
I3
sg1
I3
sg21
I1
sg22
I1
sg23
I3
sg24
I4
sg25
I1
sg26
I2
sg27
I2
sg28
I1
sg29
I1
sg31
I1
sg32
I5
sg33
I3
sg34
I2
sg35
I4
sg36
I1
sg20
I1
sg37
I2
sg38
I1
sg39
I3
sg40
I2
sg30
I2
sg42
I6
sg43
I2
sg44
I1
sg45
I1
sg46
I2
sg47
I2
sg48
I2
sg50
I3
sg51
I2
sg52
I2
sg53
I4
sg54
I4
sg55
I2
sg56
I1
sg57
I1
sg58
I2
sg59
I2
sg60
I2
sg61
I3
sg83
I1
sg63
I2
sg64
I2
sg65
I1
sg66
I5
sg67
I2
sg68
I1
sg69
I3
sg70
I3
sg71
I3
sg72
I2
sg73
I1
sg74
I1
sg75
I3
sg76
I2
sg77
I1
sg78
I3
sg79
I1
ssg42
(dp120
g3
I9
sg4
I4
sg5
I6
sg6
I5
sg82
I9
sg8
I6
sg9
I1
sg10
I17
sg11
I15
sg12
I6
sg13
I4
sg14
I12
sg15
I11
sg16
I9
sg17
I9
sg83
I4
sg19
I5
sg1
I6
sg21
I4
sg22
I5
sg23
I8
sg24
I9
sg25
I5
sg26
I12
sg27
I7
sg28
I3
sg29
I8
sg30
I13
sg31
I5
sg32
I13
sg33
I5
sg34
I6
sg35
I12
sg36
I8
sg7
I10
sg20
I1
sg37
I1
sg38
I6
sg39
I8
sg40
I9
sg41
I6
sg18
I5
sg43
I11
sg44
I7
sg45
I2
sg46
I8
sg47
I6
sg48
I5
sg49
I1
sg50
I6
sg51
I5
sg52
I4
sg53
I18
sg54
I11
sg55
I3
sg56
I4
sg57
I5
sg58
I3
sg59
I8
sg60
I6
sg61
I3
sg84
I1
sg62
I9
sg63
I11
sg64
I6
sg65
I9
sg66
I9
sg67
I6
sg68
I8
sg69
I4
sg70
I13
sg71
I7
sg72
I5
sg73
I5
sg74
I2
sg75
I5
sg76
I4
sg77
I7
sg78
I6
sg79
I2
ssg43
(dp121
g3
I5
sg66
I5
sg6
I1
sg82
I6
sg77
I7
sg9
I2
sg10
I7
sg34
I1
sg12
I4
sg13
I1
sg14
I7
sg15
I6
sg16
I3
sg17
I4
sg83
I5
sg19
I4
sg1
I2
sg74
I3
sg22
I1
sg23
I6
sg24
I8
sg25
I4
sg26
I5
sg27
I7
sg28
I1
sg29
I2
sg30
I10
sg31
I2
sg32
I6
sg33
I3
sg35
I6
sg36
I8
sg7
I8
sg20
I2
sg18
I4
sg38
I5
sg39
I6
sg40
I5
sg41
I2
sg42
I11
sg44
I3
sg45
I1
sg46
I4
sg47
I4
sg48
I4
sg50
I4
sg51
I4
sg52
I1
sg53
I11
sg54
I6
sg56
I4
sg57
I2
sg59
I1
sg60
I1
sg84
I1
sg62
I3
sg63
I5
sg64
I1
sg65
I7
sg5
I3
sg8
I4
sg68
I4
sg11
I8
sg70
I6
sg71
I7
sg72
I6
sg73
I4
sg75
I5
sg76
I5
sg78
I6
sg79
I3
ssg44
(dp122
g3
I3
sg4
I2
sg5
I4
sg7
I6
sg82
I3
sg8
I3
sg10
I2
sg11
I4
sg12
I3
sg14
I2
sg15
I1
sg16
I1
sg17
I2
sg38
I1
sg19
I1
sg1
I4
sg21
I2
sg22
I3
sg23
I3
sg31
I3
sg25
I1
sg26
I5
sg27
I3
sg28
I3
sg29
I3
sg30
I2
sg32
I4
sg33
I3
sg35
I1
sg36
I3
sg37
I3
sg39
I3
sg40
I1
sg41
I1
sg42
I7
sg43
I3
sg45
I2
sg6
I5
sg47
I5
sg49
I2
sg50
I3
sg51
I2
sg52
I2
sg53
I5
sg54
I1
sg55
I2
sg56
I1
sg57
I3
sg58
I1
sg59
I3
sg60
I4
sg61
I1
sg83
I2
sg62
I4
sg63
I2
sg64
I3
sg65
I2
sg66
I5
sg67
I4
sg68
I3
sg69
I3
sg70
I3
sg34
I3
sg74
I1
sg77
I4
sg78
I2
sg46
I2
ssg6
(dp123
g26
I1
sg4
I2
sg66
I4
sg77
I2
sg10
I4
sg11
I4
sg12
I2
sg13
I1
sg15
I1
sg16
I1
sg1
I4
sg35
I2
sg22
I2
sg23
I4
sg24
I1
sg25
I1
sg3
I2
sg27
I1
sg28
I2
sg29
I2
sg32
I2
sg33
I2
sg34
I3
sg14
I2
sg37
I1
sg39
I1
sg40
I1
sg42
I5
sg43
I1
sg44
I5
sg45
I2
sg7
I2
sg47
I2
sg48
I1
sg49
I2
sg38
I1
sg51
I2
sg52
I2
sg53
I3
sg54
I3
sg55
I1
sg57
I2
sg59
I3
sg60
I4
sg62
I3
sg63
I2
sg64
I3
sg65
I1
sg5
I3
sg67
I3
sg68
I2
sg69
I2
sg70
I1
sg71
I1
sg78
I1
sg46
I1
ssVCAZE 13 - ENCERRAMENTO
p124
(dp125
sg53
(dp126
g3
I6
sg4
I2
sg5
I6
sg6
I3
sg82
I7
sg8
I6
sg9
I2
sg10
I10
sg11
I9
sg12
I4
sg13
I3
sg14
I10
sg15
I10
sg16
I7
sg17
I7
sg83
I5
sg19
I5
sg1
I3
sg21
I3
sg22
I3
sg23
I7
sg24
I9
sg25
I3
sg26
I7
sg27
I5
sg28
I3
sg29
I2
sg30
I11
sg31
I4
sg32
I10
sg33
I3
sg34
I3
sg35
I11
sg36
I8
sg7
I8
sg20
I2
sg37
I2
sg18
I4
sg38
I5
sg39
I4
sg40
I7
sg41
I4
sg42
I18
sg43
I11
sg44
I5
sg45
I1
sg46
I4
sg47
I4
sg48
I4
sg50
I6
sg51
I3
sg52
I2
sg54
I10
sg55
I2
sg56
I5
sg57
I4
sg58
I1
sg59
I4
sg60
I3
sg61
I1
sg84
I1
sg62
I3
sg63
I5
sg64
I3
sg65
I9
sg66
I8
sg67
I4
sg68
I7
sg69
I3
sg70
I8
sg71
I8
sg72
I6
sg73
I4
sg74
I3
sg75
I5
sg76
I5
sg77
I5
sg78
I8
sg79
I3
ssg54
(dp127
g3
I6
sg4
I4
sg5
I3
sg6
I3
sg82
I6
sg8
I3
sg10
I9
sg11
I6
sg12
I3
sg13
I5
sg14
I5
sg15
I8
sg16
I5
sg17
I5
sg83
I4
sg19
I6
sg1
I4
sg21
I1
sg9
I2
sg23
I5
sg24
I8
sg25
I3
sg26
I4
sg27
I3
sg28
I1
sg30
I6
sg31
I2
sg32
I6
sg33
I2
sg34
I2
sg35
I9
sg36
I9
sg7
I5
sg37
I1
sg18
I4
sg38
I4
sg39
I3
sg40
I8
sg41
I4
sg42
I11
sg43
I6
sg44
I1
sg45
I1
sg46
I3
sg47
I3
sg48
I5
sg50
I3
sg51
I4
sg52
I2
sg53
I10
sg20
I1
sg55
I3
sg56
I4
sg57
I2
sg58
I2
sg59
I2
sg60
I2
sg61
I1
sg84
I1
sg62
I1
sg63
I3
sg64
I2
sg65
I3
sg66
I5
sg67
I3
sg68
I3
sg69
I4
sg70
I7
sg71
I7
sg72
I5
sg73
I4
sg74
I3
sg75
I6
sg76
I5
sg77
I4
sg78
I7
sg79
I2
ssg26
(dp128
g3
I5
sg4
I2
sg5
I3
sg6
I1
sg82
I9
sg8
I5
sg9
I1
sg10
I6
sg11
I6
sg12
I6
sg13
I1
sg15
I6
sg16
I5
sg17
I7
sg83
I2
sg19
I3
sg1
I3
sg21
I4
sg22
I4
sg23
I2
sg24
I3
sg25
I3
sg36
I6
sg27
I8
sg28
I4
sg29
I7
sg30
I5
sg31
I3
sg32
I5
sg33
I4
sg34
I4
sg35
I3
sg14
I7
sg7
I8
sg37
I3
sg18
I2
sg38
I4
sg39
I5
sg40
I4
sg41
I2
sg42
I12
sg43
I5
sg44
I5
sg45
I1
sg46
I9
sg47
I4
sg48
I2
sg49
I1
sg50
I4
sg51
I2
sg52
I2
sg53
I7
sg54
I4
sg55
I3
sg56
I2
sg57
I4
sg58
I3
sg59
I5
sg60
I4
sg61
I2
sg84
I1
sg62
I4
sg63
I8
sg64
I4
sg65
I5
sg66
I5
sg67
I4
sg68
I4
sg69
I2
sg70
I10
sg71
I4
sg72
I2
sg73
I4
sg74
I1
sg75
I1
sg76
I1
sg77
I4
sg78
I7
sg79
I1
ssg38
(dp129
g3
I2
sg4
I2
sg66
I1
sg6
I1
sg82
I4
sg8
I4
sg12
I4
sg13
I7
sg14
I4
sg15
I3
sg16
I2
sg17
I2
sg18
I2
sg19
I4
sg1
I2
sg21
I1
sg9
I3
sg23
I4
sg24
I4
sg25
I5
sg26
I4
sg27
I4
sg28
I2
sg29
I2
sg30
I4
sg32
I5
sg33
I6
sg35
I5
sg36
I8
sg7
I6
sg20
I3
sg37
I1
sg31
I2
sg39
I3
sg40
I5
sg41
I1
sg42
I6
sg43
I5
sg44
I1
sg45
I6
sg46
I5
sg47
I7
sg48
I7
sg49
I2
sg50
I2
sg51
I8
sg52
I5
sg53
I5
sg54
I4
sg55
I1
sg56
I4
sg57
I4
sg74
I4
sg61
I1
sg83
I5
sg62
I1
sg63
I3
sg65
I1
sg5
I5
sg67
I2
sg10
I5
sg11
I6
sg70
I7
sg71
I5
sg72
I6
sg73
I5
sg75
I5
sg76
I3
sg77
I2
sg78
I8
sg79
I5
ssg19
(dp130
g3
I4
sg4
I1
sg5
I3
sg82
I3
sg8
I7
sg10
I7
sg11
I7
sg12
I3
sg13
I1
sg14
I1
sg15
I3
sg17
I1
sg83
I7
sg1
I1
sg74
I7
sg9
I2
sg23
I1
sg24
I8
sg46
I2
sg26
I3
sg27
I5
sg28
I1
sg30
I2
sg31
I5
sg32
I5
sg34
I2
sg35
I4
sg36
I7
sg20
I2
sg37
I2
sg38
I4
sg39
I2
sg40
I5
sg41
I3
sg42
I5
sg43
I4
sg44
I1
sg45
I1
sg7
I4
sg47
I3
sg48
I1
sg49
I1
sg50
I1
sg51
I3
sg52
I3
sg53
I5
sg54
I6
sg55
I5
sg56
I8
sg57
I6
sg58
I1
sg59
I1
sg60
I1
sg61
I3
sg84
I2
sg63
I5
sg64
I1
sg65
I2
sg66
I3
sg67
I2
sg68
I1
sg69
I3
sg70
I5
sg71
I6
sg72
I3
sg73
I4
sg75
I3
sg76
I4
sg77
I1
sg78
I5
sg79
I2
ssg20
(dp131
g36
I3
sg32
I4
sg7
I5
sg8
I2
sg13
I1
sg15
I1
sg16
I1
sg17
I1
sg18
I1
sg19
I2
sg3
I1
sg74
I5
sg9
I5
sg23
I2
sg24
I1
sg25
I2
sg1
I1
sg27
I3
sg28
I2
sg30
I1
sg33
I1
sg14
I1
sg38
I3
sg40
I3
sg41
I1
sg42
I1
sg43
I2
sg45
I2
sg46
I1
sg47
I2
sg48
I2
sg50
I1
sg51
I4
sg52
I2
sg53
I2
sg54
I1
sg56
I3
sg57
I1
sg35
I2
sg83
I3
sg31
I2
sg65
I1
sg5
I2
sg67
I1
sg10
I1
sg11
I2
sg70
I2
sg71
I6
sg72
I3
sg73
I1
sg75
I5
sg76
I2
sg77
I1
sg78
I4
sg79
I3
ssg74
(dp132
g3
I3
sg5
I5
sg7
I5
sg82
I2
sg8
I6
sg11
I4
sg12
I2
sg13
I2
sg14
I1
sg15
I3
sg16
I2
sg17
I2
sg18
I2
sg19
I7
sg1
I1
sg21
I1
sg9
I5
sg23
I2
sg24
I3
sg25
I3
sg26
I1
sg27
I4
sg28
I3
sg30
I2
sg31
I3
sg32
I4
sg33
I2
sg35
I4
sg36
I7
sg20
I5
sg37
I2
sg38
I4
sg40
I6
sg41
I1
sg42
I2
sg43
I3
sg44
I1
sg45
I2
sg46
I1
sg47
I3
sg48
I3
sg49
I1
sg50
I2
sg51
I7
sg52
I2
sg53
I3
sg54
I3
sg55
I4
sg56
I5
sg57
I6
sg58
I1
sg84
I3
sg61
I2
sg83
I8
sg63
I2
sg65
I3
sg66
I1
sg67
I2
sg10
I2
sg69
I1
sg70
I5
sg71
I6
sg72
I3
sg73
I5
sg75
I6
sg76
I6
sg77
I3
sg78
I6
sg79
I5
ssg9
(dp133
g3
I3
sg66
I1
sg7
I4
sg82
I1
sg8
I3
sg11
I1
sg12
I1
sg13
I1
sg14
I1
sg15
I2
sg16
I3
sg17
I2
sg83
I3
sg19
I2
sg1
I2
sg21
I2
sg22
I1
sg23
I2
sg24
I1
sg25
I3
sg26
I1
sg27
I2
sg28
I4
sg29
I1
sg30
I2
sg32
I7
sg33
I2
sg34
I1
sg35
I3
sg36
I4
sg37
I1
sg18
I2
sg38
I3
sg40
I3
sg41
I2
sg42
I1
sg43
I2
sg20
I5
sg45
I2
sg46
I1
sg47
I2
sg48
I3
sg50
I2
sg51
I3
sg52
I1
sg53
I2
sg54
I2
sg55
I2
sg56
I2
sg57
I2
sg58
I2
sg59
I1
sg60
I1
sg61
I2
sg84
I2
sg31
I1
sg64
I1
sg65
I2
sg5
I4
sg67
I2
sg10
I1
sg69
I1
sg70
I4
sg71
I6
sg72
I3
sg73
I1
sg74
I5
sg75
I6
sg76
I4
sg77
I2
sg78
I6
sg79
I3
ssg55
(dp134
g3
I4
sg4
I2
sg5
I4
sg6
I1
sg7
I1
sg8
I7
sg9
I2
sg10
I3
sg11
I2
sg12
I4
sg13
I2
sg15
I1
sg16
I2
sg17
I1
sg83
I2
sg19
I5
sg1
I4
sg21
I2
sg22
I3
sg34
I3
sg24
I3
sg25
I1
sg26
I3
sg27
I2
sg28
I3
sg29
I2
sg31
I2
sg32
I5
sg33
I2
sg35
I2
sg36
I3
sg37
I3
sg38
I1
sg40
I3
sg41
I2
sg42
I3
sg74
I4
sg44
I2
sg45
I2
sg46
I3
sg47
I2
sg48
I1
sg49
I4
sg50
I3
sg51
I5
sg52
I4
sg53
I2
sg54
I3
sg56
I3
sg57
I7
sg58
I3
sg59
I4
sg60
I4
sg61
I5
sg84
I1
sg62
I2
sg63
I1
sg64
I4
sg65
I1
sg66
I3
sg67
I4
sg68
I1
sg69
I4
sg70
I1
sg71
I1
sg72
I1
sg73
I2
sg75
I2
sg76
I2
sg77
I3
sg78
I3
sg79
I2
ssg56
(dp135
g3
I4
sg4
I1
sg5
I3
sg7
I4
sg82
I2
sg8
I5
sg11
I4
sg12
I1
sg13
I1
sg15
I2
sg83
I6
sg19
I8
sg1
I1
sg74
I5
sg9
I2
sg23
I2
sg24
I5
sg25
I1
sg26
I2
sg27
I4
sg28
I2
sg30
I2
sg31
I5
sg32
I5
sg33
I1
sg34
I1
sg35
I3
sg36
I6
sg20
I3
sg38
I4
sg39
I1
sg40
I5
sg41
I1
sg42
I4
sg43
I4
sg44
I1
sg45
I1
sg46
I2
sg47
I3
sg48
I1
sg49
I1
sg50
I1
sg51
I3
sg52
I3
sg53
I5
sg54
I4
sg55
I3
sg57
I3
sg59
I1
sg60
I1
sg84
I1
sg63
I2
sg64
I1
sg65
I2
sg66
I1
sg67
I1
sg10
I5
sg69
I2
sg70
I5
sg71
I5
sg72
I3
sg73
I2
sg75
I4
sg76
I4
sg77
I2
sg78
I4
sg79
I3
ssg57
(dp136
g3
I3
sg4
I2
sg5
I6
sg6
I2
sg82
I1
sg8
I8
sg9
I2
sg10
I3
sg11
I3
sg12
I6
sg13
I3
sg14
I2
sg15
I2
sg16
I3
sg17
I1
sg83
I6
sg19
I6
sg1
I3
sg21
I2
sg22
I3
sg23
I1
sg24
I3
sg25
I1
sg26
I4
sg27
I4
sg28
I3
sg29
I2
sg30
I1
sg31
I3
sg32
I3
sg33
I3
sg34
I2
sg35
I3
sg36
I3
sg20
I1
sg37
I4
sg38
I4
sg39
I1
sg40
I1
sg41
I1
sg42
I5
sg43
I2
sg44
I3
sg45
I2
sg46
I2
sg47
I4
sg48
I3
sg49
I2
sg50
I4
sg51
I4
sg52
I3
sg53
I4
sg54
I2
sg55
I7
sg56
I3
sg7
I2
sg58
I3
sg59
I3
sg60
I3
sg61
I4
sg84
I2
sg62
I3
sg63
I3
sg64
I3
sg65
I2
sg66
I2
sg67
I4
sg68
I2
sg69
I3
sg70
I3
sg71
I2
sg73
I3
sg74
I6
sg75
I1
sg76
I3
sg77
I4
sg78
I6
sg79
I2
ssg58
(dp137
g3
I4
sg5
I3
sg82
I1
sg8
I3
sg9
I2
sg11
I1
sg12
I2
sg14
I1
sg15
I2
sg16
I3
sg17
I2
sg83
I1
sg19
I1
sg1
I2
sg21
I3
sg22
I2
sg34
I2
sg24
I2
sg25
I1
sg26
I3
sg27
I2
sg28
I4
sg29
I1
sg30
I2
sg32
I3
sg33
I1
sg35
I2
sg36
I2
sg18
I1
sg31
I1
sg40
I2
sg41
I2
sg42
I3
sg74
I1
sg44
I1
sg48
I1
sg50
I2
sg51
I1
sg53
I1
sg54
I2
sg55
I3
sg57
I3
sg59
I2
sg60
I2
sg61
I4
sg84
I1
sg62
I1
sg63
I3
sg64
I2
sg65
I3
sg66
I2
sg67
I2
sg10
I1
sg69
I3
sg70
I1
sg37
I4
sg72
I1
sg73
I1
sg75
I2
sg76
I1
sg77
I2
sg78
I4
sg79
I1
ssg84
(dp138
g3
I1
sg32
I1
sg77
I1
sg12
I1
sg15
I1
sg16
I1
sg17
I1
sg18
I1
sg19
I2
sg30
I1
sg21
I1
sg9
I2
sg24
I1
sg25
I1
sg26
I1
sg27
I1
sg28
I1
sg33
I1
sg35
I1
sg36
I2
sg31
I1
sg40
I1
sg42
I1
sg43
I1
sg7
I1
sg47
I1
sg48
I1
sg82
I2
sg53
I1
sg54
I1
sg55
I1
sg56
I1
sg57
I2
sg58
I1
sg74
I3
sg61
I1
sg83
I2
sg63
I1
sg65
I2
sg5
I1
sg8
I2
sg10
I1
sg11
I1
sg70
I2
sg71
I1
sg73
I2
sg75
I1
sg76
I2
sg78
I2
sg79
I1
ssg61
(dp139
g26
I2
sg66
I3
sg8
I5
sg9
I2
sg11
I1
sg12
I3
sg13
I1
sg15
I1
sg16
I2
sg17
I1
sg38
I1
sg19
I3
sg1
I2
sg21
I2
sg22
I2
sg34
I2
sg24
I2
sg46
I1
sg3
I3
sg27
I2
sg28
I2
sg29
I1
sg30
I1
sg32
I3
sg33
I1
sg35
I1
sg14
I1
sg37
I3
sg39
I1
sg40
I1
sg41
I3
sg42
I3
sg44
I1
sg45
I1
sg47
I1
sg48
I1
sg49
I2
sg50
I2
sg51
I1
sg52
I1
sg53
I1
sg54
I1
sg55
I5
sg57
I4
sg58
I4
sg59
I2
sg60
I2
sg84
I1
sg62
I1
sg63
I2
sg64
I2
sg65
I2
sg5
I2
sg67
I4
sg10
I1
sg69
I3
sg71
I1
sg74
I2
sg31
I1
sg77
I1
sg78
I3
sg79
I1
ssg83
(dp140
g3
I4
sg66
I1
sg7
I6
sg82
I4
sg8
I5
sg10
I2
sg12
I2
sg13
I2
sg14
I1
sg15
I4
sg16
I1
sg17
I1
sg18
I2
sg19
I7
sg20
I3
sg21
I1
sg9
I3
sg23
I2
sg24
I5
sg25
I2
sg26
I2
sg27
I5
sg28
I3
sg30
I4
sg31
I4
sg32
I4
sg33
I3
sg35
I6
sg36
I8
sg37
I1
sg38
I5
sg39
I2
sg40
I5
sg41
I1
sg42
I4
sg43
I5
sg44
I2
sg45
I2
sg46
I1
sg47
I4
sg48
I3
sg50
I3
sg51
I6
sg52
I1
sg53
I5
sg54
I4
sg55
I2
sg56
I6
sg57
I6
sg58
I1
sg74
I8
sg84
I2
sg62
I1
sg63
I3
sg65
I4
sg5
I6
sg67
I1
sg68
I2
sg11
I4
sg70
I5
sg71
I4
sg72
I2
sg73
I5
sg75
I5
sg76
I6
sg77
I5
sg78
I7
sg79
I4
ssg32
(dp141
g3
I8
sg4
I3
sg5
I9
sg6
I2
sg82
I2
sg8
I5
sg9
I7
sg10
I11
sg11
I9
sg12
I3
sg13
I2
sg14
I4
sg15
I6
sg16
I7
sg17
I6
sg83
I4
sg19
I5
sg1
I6
sg21
I5
sg22
I6
sg23
I5
sg24
I6
sg25
I4
sg26
I5
sg27
I5
sg28
I7
sg29
I5
sg30
I6
sg31
I3
sg33
I4
sg34
I4
sg35
I9
sg36
I7
sg7
I6
sg20
I4
sg37
I3
sg18
I3
sg38
I5
sg39
I4
sg40
I9
sg41
I5
sg42
I13
sg43
I6
sg44
I4
sg45
I4
sg46
I4
sg47
I4
sg48
I3
sg49
I2
sg50
I6
sg51
I5
sg52
I4
sg53
I10
sg54
I6
sg55
I5
sg56
I5
sg57
I3
sg58
I3
sg59
I7
sg60
I6
sg61
I3
sg84
I1
sg62
I5
sg63
I3
sg64
I6
sg65
I6
sg66
I8
sg67
I8
sg68
I3
sg69
I5
sg70
I8
sg71
I8
sg72
I5
sg73
I3
sg74
I4
sg75
I8
sg76
I5
sg77
I5
sg78
I6
sg79
I4
ssg8
(dp142
g3
I4
sg4
I1
sg5
I3
sg7
I3
sg82
I2
sg77
I2
sg9
I3
sg10
I5
sg11
I5
sg12
I5
sg13
I2
sg14
I2
sg15
I2
sg16
I3
sg17
I2
sg83
I5
sg19
I7
sg1
I4
sg21
I2
sg22
I2
sg23
I1
sg24
I3
sg25
I1
sg26
I5
sg27
I5
sg28
I3
sg29
I1
sg30
I3
sg31
I5
sg32
I5
sg33
I1
sg34
I2
sg35
I3
sg36
I3
sg20
I2
sg37
I3
sg18
I1
sg38
I4
sg39
I1
sg40
I4
sg41
I3
sg42
I6
sg43
I4
sg44
I3
sg45
I2
sg46
I2
sg47
I4
sg48
I2
sg49
I5
sg50
I4
sg51
I2
sg52
I5
sg53
I6
sg54
I3
sg55
I7
sg56
I5
sg57
I8
sg58
I3
sg59
I3
sg60
I3
sg61
I5
sg84
I2
sg62
I2
sg63
I4
sg64
I3
sg65
I2
sg66
I3
sg67
I3
sg68
I1
sg69
I4
sg70
I3
sg71
I2
sg72
I1
sg73
I1
sg74
I6
sg75
I1
sg76
I2
sg78
I8
sg79
I4
ssg12
(dp143
g3
I3
sg4
I1
sg5
I4
sg6
I2
sg82
I4
sg8
I5
sg9
I1
sg10
I4
sg11
I5
sg13
I4
sg14
I3
sg15
I2
sg16
I4
sg17
I4
sg83
I2
sg19
I3
sg1
I5
sg21
I2
sg22
I4
sg34
I4
sg24
I5
sg25
I3
sg26
I6
sg27
I5
sg28
I4
sg29
I4
sg30
I3
sg31
I2
sg32
I3
sg33
I7
sg35
I1
sg36
I5
sg7
I6
sg37
I2
sg18
I1
sg38
I4
sg39
I1
sg40
I4
sg41
I1
sg42
I6
sg43
I4
sg44
I3
sg45
I4
sg46
I5
sg47
I7
sg48
I3
sg49
I4
sg50
I2
sg51
I6
sg52
I5
sg53
I4
sg54
I3
sg55
I4
sg56
I1
sg57
I6
sg58
I2
sg59
I4
sg60
I4
sg61
I3
sg84
I1
sg62
I4
sg63
I5
sg64
I4
sg65
I4
sg66
I4
sg67
I4
sg68
I5
sg69
I3
sg70
I2
sg71
I4
sg72
I5
sg73
I4
sg74
I2
sg75
I1
sg76
I1
sg77
I7
sg78
I6
sg79
I2
ssg13
(dp144
g26
I1
sg4
I2
sg32
I2
sg6
I1
sg7
I2
sg8
I2
sg11
I2
sg12
I4
sg15
I4
sg16
I3
sg17
I2
sg18
I1
sg19
I1
sg3
I1
sg74
I2
sg9
I1
sg23
I2
sg24
I2
sg25
I2
sg1
I3
sg82
I1
sg77
I1
sg30
I1
sg33
I2
sg36
I4
sg37
I1
sg38
I7
sg40
I3
sg41
I1
sg42
I4
sg43
I1
sg20
I1
sg45
I6
sg46
I2
sg47
I4
sg48
I3
sg49
I3
sg50
I2
sg51
I7
sg52
I5
sg53
I3
sg54
I5
sg55
I2
sg56
I1
sg57
I3
sg35
I5
sg61
I1
sg83
I2
sg14
I3
sg5
I2
sg67
I1
sg10
I2
sg69
I1
sg70
I4
sg71
I2
sg72
I2
sg73
I4
sg75
I2
sg76
I2
sg78
I5
sg79
I4
ssg15
(dp145
g3
I7
sg4
I1
sg66
I4
sg6
I1
sg82
I5
sg8
I2
sg9
I2
sg10
I6
sg34
I3
sg12
I2
sg13
I4
sg14
I8
sg16
I8
sg17
I7
sg83
I4
sg19
I3
sg1
I1
sg21
I2
sg22
I3
sg23
I4
sg24
I2
sg25
I2
sg26
I6
sg27
I4
sg28
I2
sg29
I3
sg30
I11
sg31
I1
sg32
I6
sg33
I3
sg35
I9
sg36
I5
sg7
I6
sg20
I1
sg18
I5
sg38
I3
sg39
I3
sg40
I3
sg41
I2
sg42
I11
sg43
I6
sg44
I1
sg45
I1
sg46
I5
sg47
I3
sg48
I4
sg50
I4
sg51
I3
sg52
I2
sg53
I10
sg54
I8
sg55
I1
sg56
I2
sg57
I2
sg58
I2
sg59
I3
sg60
I1
sg61
I1
sg84
I1
sg62
I2
sg63
I5
sg64
I1
sg65
I8
sg5
I3
sg67
I2
sg68
I6
sg11
I6
sg70
I8
sg71
I3
sg72
I3
sg73
I3
sg74
I3
sg75
I4
sg76
I4
sg77
I6
sg78
I6
sg79
I1
ssg16
(dp146
g3
I5
sg4
I1
sg5
I5
sg6
I1
sg82
I3
sg8
I3
sg9
I3
sg10
I4
sg11
I4
sg12
I4
sg13
I3
sg14
I4
sg15
I8
sg17
I7
sg83
I1
sg1
I3
sg21
I4
sg22
I5
sg23
I3
sg24
I1
sg25
I3
sg26
I5
sg27
I3
sg28
I4
sg29
I4
sg30
I6
sg31
I1
sg32
I7
sg33
I2
sg34
I2
sg35
I4
sg36
I3
sg7
I3
sg20
I1
sg37
I2
sg18
I4
sg38
I2
sg39
I1
sg40
I2
sg41
I2
sg42
I9
sg43
I3
sg44
I1
sg45
I1
sg46
I3
sg47
I2
sg48
I4
sg50
I3
sg51
I1
sg52
I2
sg53
I7
sg54
I5
sg55
I2
sg57
I3
sg58
I3
sg59
I5
sg60
I3
sg61
I2
sg84
I1
sg62
I3
sg63
I1
sg64
I3
sg65
I4
sg66
I4
sg67
I4
sg68
I4
sg69
I2
sg70
I6
sg71
I2
sg72
I3
sg73
I2
sg74
I2
sg75
I2
sg76
I2
sg77
I4
sg78
I5
sg79
I1
ssg17
(dp147
g3
I4
sg5
I2
sg7
I4
sg82
I6
sg8
I2
sg9
I2
sg10
I4
sg11
I3
sg12
I4
sg13
I2
sg14
I7
sg15
I7
sg16
I7
sg83
I1
sg19
I1
sg1
I2
sg21
I4
sg22
I2
sg23
I2
sg24
I2
sg25
I4
sg26
I7
sg27
I3
sg28
I2
sg29
I4
sg30
I5
sg31
I1
sg32
I6
sg33
I2
sg34
I2
sg35
I6
sg36
I6
sg20
I1
sg37
I1
sg18
I5
sg38
I2
sg39
I1
sg40
I4
sg41
I2
sg42
I9
sg43
I4
sg44
I2
sg45
I1
sg46
I5
sg47
I2
sg48
I3
sg50
I4
sg51
I1
sg52
I3
sg53
I7
sg54
I5
sg55
I1
sg57
I1
sg58
I2
sg59
I4
sg60
I2
sg61
I1
sg84
I1
sg62
I2
sg63
I3
sg64
I3
sg65
I4
sg66
I4
sg67
I1
sg68
I4
sg69
I1
sg70
I8
sg71
I4
sg72
I4
sg73
I5
sg74
I2
sg75
I3
sg76
I2
sg77
I6
sg78
I4
sg79
I1
ssg18
(dp148
g3
I1
sg66
I1
sg7
I4
sg82
I4
sg77
I3
sg10
I1
sg34
I1
sg12
I1
sg13
I1
sg14
I3
sg15
I5
sg16
I4
sg17
I5
sg83
I2
sg1
I1
sg21
I2
sg9
I2
sg23
I2
sg24
I2
sg25
I4
sg26
I2
sg27
I1
sg28
I1
sg29
I2
sg30
I6
sg32
I3
sg33
I2
sg35
I5
sg36
I4
sg38
I2
sg39
I1
sg40
I2
sg41
I2
sg42
I5
sg43
I4
sg20
I1
sg45
I1
sg46
I2
sg47
I2
sg48
I4
sg50
I4
sg51
I2
sg52
I2
sg53
I4
sg54
I4
sg58
I1
sg59
I1
sg74
I2
sg84
I1
sg65
I2
sg5
I1
sg8
I1
sg68
I3
sg11
I1
sg70
I4
sg71
I2
sg72
I2
sg73
I3
sg75
I3
sg76
I3
sg78
I3
sg79
I1
ssg30
(dp149
g3
I4
sg66
I5
sg7
I7
sg82
I5
sg8
I3
sg9
I2
sg10
I6
sg34
I2
sg12
I3
sg13
I1
sg14
I8
sg15
I11
sg16
I6
sg17
I5
sg83
I4
sg19
I2
sg1
I1
sg21
I1
sg22
I2
sg23
I4
sg24
I7
sg25
I4
sg26
I5
sg27
I4
sg28
I1
sg29
I3
sg31
I1
sg32
I6
sg33
I5
sg35
I7
sg36
I6
sg20
I1
sg18
I6
sg38
I4
sg39
I6
sg40
I4
sg41
I2
sg42
I13
sg43
I10
sg44
I2
sg45
I1
sg46
I5
sg47
I4
sg48
I5
sg50
I4
sg51
I3
sg52
I2
sg53
I11
sg54
I6
sg56
I2
sg57
I1
sg58
I2
sg59
I2
sg60
I1
sg61
I1
sg84
I1
sg62
I3
sg63
I5
sg64
I1
sg65
I9
sg5
I3
sg67
I1
sg68
I6
sg11
I6
sg70
I7
sg71
I4
sg72
I5
sg73
I3
sg74
I2
sg75
I5
sg76
I4
sg77
I7
sg78
I4
sg79
I1
ssg35
(dp150
g3
I5
sg4
I2
sg5
I5
sg6
I2
sg82
I5
sg8
I3
sg10
I8
sg11
I4
sg12
I1
sg13
I5
sg14
I10
sg15
I9
sg16
I4
sg17
I6
sg83
I6
sg19
I4
sg1
I2
sg21
I2
sg9
I3
sg23
I4
sg24
I5
sg25
I3
sg26
I3
sg27
I3
sg28
I2
sg29
I1
sg30
I7
sg31
I2
sg32
I9
sg33
I3
sg34
I4
sg36
I7
sg7
I5
sg20
I2
sg18
I5
sg38
I5
sg39
I2
sg40
I8
sg41
I4
sg42
I12
sg43
I6
sg44
I1
sg45
I3
sg46
I4
sg47
I3
sg48
I5
sg50
I6
sg51
I5
sg52
I2
sg53
I11
sg54
I9
sg55
I2
sg56
I3
sg57
I3
sg58
I2
sg59
I2
sg60
I2
sg61
I1
sg84
I1
sg62
I1
sg63
I3
sg64
I2
sg65
I5
sg66
I4
sg67
I1
sg68
I3
sg69
I1
sg70
I8
sg71
I6
sg72
I4
sg73
I6
sg74
I4
sg75
I6
sg76
I4
sg77
I4
sg78
I6
sg79
I3
ssg14
(dp151
g3
I3
sg4
I1
sg66
I3
sg6
I2
sg82
I5
sg9
I1
sg10
I6
sg34
I2
sg12
I3
sg13
I3
sg15
I8
sg16
I4
sg17
I7
sg18
I3
sg19
I1
sg1
I1
sg21
I2
sg22
I1
sg23
I4
sg24
I3
sg25
I3
sg26
I7
sg27
I3
sg77
I4
sg29
I4
sg30
I8
sg32
I4
sg33
I1
sg35
I10
sg36
I5
sg7
I4
sg20
I1
sg38
I4
sg39
I4
sg40
I2
sg41
I1
sg42
I12
sg43
I7
sg44
I2
sg45
I1
sg46
I5
sg47
I1
sg48
I3
sg50
I5
sg51
I2
sg52
I2
sg53
I10
sg54
I5
sg57
I2
sg58
I1
sg59
I2
sg60
I1
sg61
I1
sg83
I1
sg62
I3
sg63
I5
sg64
I2
sg65
I5
sg5
I2
sg8
I2
sg68
I4
sg11
I4
sg70
I7
sg71
I4
sg72
I3
sg73
I3
sg74
I1
sg75
I2
sg76
I1
sg78
I3
sg79
I1
ssg82
(dp152
g3
I3
sg66
I3
sg7
I7
sg77
I4
sg10
I4
sg34
I1
sg12
I4
sg13
I1
sg14
I5
sg15
I5
sg16
I3
sg17
I6
sg83
I4
sg19
I3
sg30
I5
sg21
I3
sg9
I1
sg23
I2
sg24
I5
sg25
I4
sg26
I9
sg27
I6
sg28
I1
sg29
I3
sg31
I2
sg32
I2
sg33
I5
sg35
I5
sg36
I8
sg18
I4
sg38
I4
sg39
I4
sg40
I4
sg41
I2
sg42
I9
sg43
I6
sg44
I3
sg46
I6
sg47
I4
sg48
I5
sg50
I3
sg51
I2
sg53
I7
sg54
I6
sg56
I2
sg57
I1
sg58
I1
sg74
I2
sg84
I2
sg62
I1
sg63
I4
sg65
I4
sg5
I1
sg8
I2
sg68
I3
sg11
I4
sg70
I8
sg71
I4
sg72
I3
sg73
I6
sg75
I3
sg76
I3
sg78
I5
sg79
I1
ssg77
(dp153
g3
I5
sg4
I1
sg5
I6
sg6
I2
sg82
I4
sg8
I2
sg9
I2
sg10
I3
sg11
I3
sg12
I7
sg13
I1
sg14
I4
sg15
I6
sg16
I4
sg17
I6
sg83
I5
sg19
I1
sg1
I3
sg21
I2
sg22
I4
sg23
I3
sg24
I4
sg25
I5
sg26
I4
sg27
I4
sg28
I5
sg29
I4
sg30
I7
sg31
I1
sg32
I5
sg33
I7
sg34
I2
sg35
I4
sg36
I5
sg7
I6
sg20
I1
sg37
I1
sg18
I3
sg38
I2
sg39
I4
sg40
I5
sg41
I1
sg42
I7
sg43
I7
sg44
I4
sg45
I2
sg46
I5
sg47
I4
sg48
I4
sg49
I2
sg50
I4
sg51
I6
sg52
I3
sg53
I5
sg54
I4
sg55
I3
sg56
I2
sg57
I4
sg58
I2
sg59
I4
sg60
I4
sg61
I1
sg84
I1
sg62
I6
sg63
I3
sg64
I4
sg65
I6
sg66
I4
sg67
I2
sg68
I6
sg69
I1
sg70
I4
sg71
I4
sg72
I4
sg73
I4
sg74
I3
sg75
I5
sg76
I4
sg78
I4
sg79
I1
ssVCAZE 13 - ABERTURA
p154
(dp155
sg37
(dp156
g3
I2
sg66
I5
sg8
I3
sg9
I1
sg11
I1
sg12
I2
sg13
I1
sg16
I2
sg17
I1
sg38
I1
sg19
I2
sg1
I3
sg21
I2
sg22
I2
sg23
I1
sg24
I3
sg25
I1
sg26
I3
sg27
I2
sg28
I3
sg29
I1
sg32
I3
sg34
I2
sg36
I1
sg31
I1
sg39
I1
sg40
I2
sg41
I2
sg42
I1
sg74
I2
sg44
I3
sg45
I1
sg6
I1
sg50
I2
sg51
I1
sg52
I1
sg53
I2
sg54
I1
sg55
I3
sg57
I4
sg58
I4
sg59
I3
sg60
I3
sg61
I3
sg83
I1
sg62
I1
sg63
I1
sg64
I4
sg65
I1
sg5
I3
sg67
I5
sg69
I6
sg71
I1
sg72
I1
sg73
I2
sg76
I1
sg77
I1
sg78
I4
sg4
I1
ssVCAZE 13 - DEPOIMENTO 1
p157
(dp158
sVCAZE 13 - DEPOIMENTO 2
p159
(dp160
sVCAZE 13 - DEPOIMENTO 3
p161
(dp162
sVCAZE 13 - DEPOIMENTO 4
p163
(dp164
sVCAZE 13 - DEPOIMENTO 5
p165
(dp166
sg45
(dp167
g26
I1
sg4
I2
sg32
I4
sg6
I2
sg8
I2
sg10
I2
sg34
I2
sg12
I4
sg13
I6
sg15
I1
sg16
I1
sg17
I1
sg18
I1
sg19
I1
sg1
I4
sg74
I2
sg22
I2
sg23
I1
sg24
I1
sg25
I3
sg36
I3
sg27
I1
sg28
I3
sg29
I2
sg30
I1
sg31
I1
sg33
I4
sg35
I3
sg14
I1
sg20
I2
sg37
I1
sg38
I6
sg40
I2
sg41
I1
sg42
I2
sg43
I1
sg44
I2
sg7
I5
sg46
I2
sg47
I7
sg48
I3
sg49
I5
sg50
I1
sg51
I7
sg52
I6
sg53
I1
sg54
I1
sg55
I2
sg56
I1
sg57
I2
sg59
I1
sg60
I2
sg61
I1
sg83
I2
sg62
I2
sg63
I1
sg64
I1
sg9
I2
sg5
I4
sg67
I3
sg68
I2
sg11
I3
sg70
I2
sg71
I2
sg72
I3
sg73
I2
sg75
I2
sg76
I1
sg77
I2
sg78
I5
sg79
I5
ssg7
(dp168
g3
I3
sg4
I2
sg66
I3
sg6
I2
sg82
I7
sg8
I3
sg9
I4
sg10
I6
sg34
I4
sg12
I6
sg13
I2
sg14
I4
sg15
I6
sg16
I3
sg17
I4
sg83
I6
sg19
I4
sg1
I3
sg74
I5
sg22
I2
sg23
I4
sg24
I7
sg25
I5
sg26
I8
sg27
I7
sg28
I4
sg29
I4
sg30
I7
sg31
I4
sg32
I6
sg33
I6
sg35
I5
sg36
I10
sg20
I5
sg18
I4
sg38
I6
sg39
I4
sg40
I7
sg41
I3
sg42
I10
sg43
I8
sg44
I6
sg45
I5
sg46
I6
sg47
I10
sg48
I5
sg49
I2
sg50
I2
sg51
I9
sg52
I4
sg53
I8
sg54
I5
sg55
I1
sg56
I4
sg57
I2
sg59
I2
sg60
I2
sg84
I1
sg62
I3
sg63
I6
sg64
I1
sg65
I5
sg5
I5
sg67
I2
sg68
I7
sg11
I8
sg70
I7
sg71
I9
sg72
I6
sg73
I6
sg75
I7
sg76
I4
sg77
I6
sg78
I7
sg79
I5
ssg47
(dp169
g3
I1
sg4
I2
sg32
I4
sg6
I2
sg82
I4
sg8
I4
sg9
I2
sg10
I4
sg34
I2
sg12
I7
sg13
I4
sg14
I1
sg15
I3
sg16
I2
sg17
I2
sg83
I4
sg19
I3
sg1
I3
sg74
I3
sg22
I2
sg23
I2
sg24
I3
sg25
I3
sg26
I4
sg27
I3
sg28
I3
sg29
I2
sg30
I4
sg31
I4
sg33
I8
sg35
I3
sg36
I7
sg7
I10
sg20
I2
sg18
I2
sg38
I7
sg39
I1
sg40
I3
sg41
I2
sg42
I6
sg43
I4
sg44
I5
sg45
I7
sg46
I4
sg48
I6
sg49
I4
sg50
I1
sg51
I7
sg52
I5
sg53
I4
sg54
I3
sg55
I2
sg56
I3
sg57
I4
sg59
I1
sg60
I2
sg61
I1
sg84
I1
sg62
I2
sg63
I3
sg64
I1
sg65
I2
sg5
I4
sg67
I3
sg68
I3
sg11
I5
sg70
I5
sg71
I4
sg72
I4
sg73
I3
sg75
I2
sg76
I2
sg77
I4
sg78
I5
sg79
I5
ssg48
(dp170
g3
I1
sg4
I1
sg66
I2
sg6
I1
sg82
I5
sg8
I2
sg10
I3
sg12
I3
sg13
I3
sg14
I3
sg15
I4
sg16
I4
sg17
I3
sg83
I3
sg19
I1
sg1
I1
sg21
I1
sg9
I3
sg23
I3
sg24
I3
sg25
I4
sg26
I2
sg27
I4
sg28
I2
sg29
I1
sg30
I5
sg31
I1
sg32
I3
sg33
I7
sg35
I5
sg36
I5
sg7
I5
sg18
I4
sg38
I7
sg39
I3
sg40
I4
sg41
I2
sg42
I5
sg43
I4
sg20
I2
sg45
I3
sg46
I3
sg47
I6
sg49
I1
sg50
I2
sg51
I5
sg52
I2
sg53
I4
sg54
I5
sg55
I1
sg56
I1
sg57
I3
sg58
I1
sg74
I3
sg61
I1
sg84
I1
sg62
I1
sg63
I1
sg65
I2
sg5
I3
sg67
I2
sg68
I2
sg11
I2
sg70
I5
sg71
I4
sg72
I4
sg73
I3
sg75
I5
sg76
I3
sg77
I4
sg78
I6
sg79
I3
ssg49
(dp171
g1
I2
sg4
I1
sg32
I2
sg6
I2
sg7
I2
sg8
I5
sg10
I2
sg11
I1
sg12
I4
sg13
I3
sg19
I1
sg74
I1
sg22
I2
sg34
I2
sg24
I1
sg25
I1
sg26
I1
sg28
I2
sg29
I2
sg40
I2
sg42
I1
sg44
I2
sg45
I5
sg46
I2
sg47
I4
sg48
I1
sg38
I2
sg51
I4
sg52
I5
sg33
I4
sg55
I4
sg56
I1
sg57
I2
sg59
I1
sg60
I2
sg61
I2
sg62
I2
sg63
I1
sg64
I1
sg5
I2
sg67
I2
sg68
I2
sg69
I1
sg77
I2
sg78
I2
sg79
I3
ssg50
(dp172
g3
I3
sg66
I3
sg7
I2
sg8
I4
sg9
I2
sg10
I1
sg11
I1
sg12
I2
sg13
I2
sg14
I5
sg15
I4
sg16
I3
sg17
I4
sg18
I4
sg19
I1
sg1
I3
sg21
I4
sg22
I2
sg23
I2
sg24
I1
sg25
I2
sg26
I4
sg27
I3
sg28
I2
sg29
I3
sg30
I4
sg32
I6
sg33
I1
sg34
I1
sg35
I6
sg36
I4
sg20
I1
sg37
I2
sg38
I2
sg39
I2
sg40
I1
sg41
I3
sg42
I6
sg43
I4
sg44
I3
sg45
I1
sg46
I1
sg47
I1
sg48
I2
sg82
I3
sg51
I3
sg52
I1
sg53
I6
sg54
I3
sg55
I3
sg56
I1
sg57
I4
sg58
I2
sg59
I2
sg60
I2
sg61
I2
sg83
I3
sg62
I3
sg31
I1
sg64
I2
sg65
I2
sg5
I3
sg67
I3
sg68
I2
sg69
I2
sg70
I4
sg71
I2
sg72
I1
sg73
I2
sg74
I2
sg75
I3
sg76
I3
sg77
I4
sg78
I4
sg79
I1
ssg51
(dp173
g3
I2
sg4
I1
sg66
I2
sg6
I2
sg82
I2
sg8
I2
sg9
I3
sg10
I3
sg34
I2
sg12
I6
sg13
I7
sg14
I2
sg15
I3
sg16
I1
sg17
I1
sg18
I2
sg19
I3
sg1
I3
sg74
I7
sg22
I2
sg23
I3
sg24
I5
sg25
I4
sg26
I2
sg27
I4
sg28
I4
sg29
I3
sg30
I3
sg31
I1
sg32
I5
sg33
I7
sg35
I5
sg36
I8
sg7
I9
sg20
I4
sg37
I1
sg38
I8
sg39
I2
sg40
I7
sg41
I2
sg42
I5
sg43
I4
sg44
I2
sg45
I7
sg46
I4
sg47
I7
sg48
I5
sg49
I4
sg50
I3
sg52
I6
sg53
I3
sg54
I4
sg55
I5
sg56
I3
sg57
I4
sg58
I1
sg59
I1
sg60
I2
sg61
I1
sg83
I6
sg62
I3
sg63
I2
sg64
I1
sg65
I2
sg5
I7
sg67
I3
sg68
I3
sg11
I5
sg70
I4
sg71
I6
sg72
I5
sg73
I6
sg75
I8
sg76
I5
sg77
I6
sg78
I5
sg79
I7
ssg52
(dp174
g3
I1
sg4
I3
sg5
I2
sg6
I2
sg7
I4
sg8
I5
sg10
I4
sg11
I3
sg12
I5
sg13
I5
sg14
I2
sg15
I2
sg16
I2
sg17
I3
sg18
I2
sg19
I3
sg1
I5
sg74
I2
sg22
I2
sg23
I1
sg24
I2
sg25
I3
sg26
I2
sg27
I1
sg28
I2
sg29
I3
sg30
I2
sg31
I2
sg32
I4
sg33
I4
sg34
I4
sg35
I2
sg36
I1
sg20
I2
sg37
I1
sg38
I5
sg40
I1
sg41
I2
sg42
I4
sg43
I1
sg44
I2
sg45
I6
sg46
I4
sg47
I5
sg48
I2
sg49
I5
sg50
I1
sg51
I6
sg53
I2
sg54
I2
sg55
I4
sg56
I3
sg57
I3
sg59
I4
sg60
I3
sg61
I1
sg83
I1
sg62
I2
sg63
I1
sg64
I3
sg9
I1
sg66
I1
sg67
I2
sg68
I4
sg69
I2
sg70
I2
sg71
I1
sg72
I2
sg73
I2
sg75
I1
sg76
I1
sg77
I3
sg78
I3
sg79
I2
ssg33
(dp175
g3
I2
sg4
I1
sg66
I3
sg6
I2
sg82
I5
sg8
I1
sg9
I2
sg10
I3
sg34
I2
sg12
I7
sg13
I2
sg14
I1
sg15
I3
sg16
I2
sg17
I2
sg83
I3
sg1
I2
sg21
I1
sg22
I2
sg23
I3
sg24
I4
sg25
I4
sg26
I4
sg27
I3
sg28
I4
sg29
I3
sg30
I5
sg32
I4
sg35
I3
sg36
I3
sg7
I6
sg20
I1
sg18
I2
sg38
I6
sg39
I4
sg40
I4
sg41
I3
sg42
I5
sg43
I3
sg44
I3
sg45
I4
sg46
I8
sg47
I8
sg48
I7
sg49
I4
sg50
I1
sg51
I7
sg52
I4
sg53
I3
sg54
I2
sg55
I2
sg56
I1
sg57
I3
sg58
I1
sg59
I1
sg60
I2
sg61
I1
sg84
I1
sg62
I3
sg63
I3
sg64
I1
sg65
I5
sg5
I4
sg67
I2
sg68
I3
sg11
I2
sg70
I4
sg71
I3
sg72
I5
sg73
I3
sg74
I2
sg75
I5
sg76
I3
sg77
I7
sg78
I4
sg79
I2
ssg34
(dp176
g3
I4
sg4
I2
sg66
I4
sg7
I4
sg82
I1
sg8
I2
sg9
I1
sg10
I5
sg11
I6
sg12
I4
sg14
I2
sg15
I3
sg16
I2
sg17
I2
sg18
I1
sg19
I2
sg1
I4
sg21
I1
sg22
I3
sg23
I2
sg24
I2
sg25
I1
sg26
I4
sg27
I2
sg28
I3
sg29
I4
sg30
I2
sg32
I4
sg33
I2
sg35
I4
sg36
I1
sg37
I2
sg40
I5
sg41
I2
sg42
I6
sg43
I1
sg44
I3
sg45
I2
sg6
I3
sg47
I2
sg49
I2
sg50
I1
sg51
I2
sg52
I4
sg53
I3
sg54
I2
sg55
I3
sg56
I1
sg57
I2
sg58
I2
sg59
I7
sg60
I7
sg61
I2
sg62
I4
sg63
I5
sg64
I6
sg65
I2
sg5
I3
sg67
I3
sg68
I4
sg69
I3
sg70
I1
sg71
I1
sg72
I1
sg73
I1
sg31
I1
sg77
I2
sg78
I2
sg46
I4
ssg31
(dp177
g3
I3
sg4
I2
sg5
I2
sg82
I2
sg8
I5
sg9
I1
sg11
I3
sg12
I2
sg15
I1
sg16
I1
sg17
I1
sg83
I4
sg19
I5
sg1
I2
sg21
I1
sg22
I1
sg34
I1
sg24
I2
sg46
I1
sg26
I3
sg27
I5
sg28
I2
sg29
I1
sg30
I1
sg32
I3
sg35
I2
sg36
I4
sg20
I2
sg37
I1
sg38
I2
sg40
I2
sg41
I1
sg42
I5
sg43
I2
sg44
I3
sg45
I1
sg7
I4
sg47
I4
sg48
I1
sg50
I1
sg51
I1
sg52
I2
sg53
I4
sg54
I2
sg55
I2
sg56
I5
sg57
I3
sg58
I1
sg59
I2
sg60
I2
sg61
I1
sg84
I1
sg62
I2
sg63
I2
sg64
I2
sg65
I2
sg66
I2
sg67
I3
sg10
I3
sg69
I3
sg70
I3
sg71
I2
sg72
I1
sg73
I1
sg74
I3
sg75
I1
sg76
I1
sg77
I1
sg78
I4
sg79
I2
ssg46
(dp178
g3
I4
sg4
I2
sg5
I2
sg7
I6
sg82
I6
sg8
I2
sg9
I1
sg10
I5
sg11
I5
sg12
I5
sg13
I2
sg14
I5
sg15
I5
sg16
I3
sg17
I5
sg18
I2
sg19
I2
sg1
I2
sg21
I1
sg22
I2
sg23
I3
sg24
I5
sg25
I4
sg26
I9
sg27
I4
sg28
I2
sg29
I5
sg30
I5
sg31
I1
sg32
I4
sg33
I8
sg34
I4
sg35
I4
sg36
I4
sg20
I1
sg38
I5
sg39
I4
sg40
I4
sg41
I2
sg42
I8
sg43
I4
sg44
I2
sg45
I2
sg6
I1
sg47
I4
sg48
I3
sg49
I2
sg50
I1
sg51
I4
sg52
I4
sg53
I4
sg54
I3
sg55
I3
sg56
I2
sg57
I2
sg59
I4
sg60
I3
sg61
I1
sg83
I1
sg62
I3
sg63
I4
sg64
I3
sg65
I5
sg66
I4
sg67
I2
sg68
I3
sg69
I1
sg70
I6
sg71
I3
sg72
I4
sg73
I3
sg74
I1
sg75
I2
sg76
I1
sg77
I5
sg78
I3
sg79
I2
ss.